
/Users/illiafedotov/CLionProjects/helpers/G2E4_program.so:	file format elf64-unknown

Disassembly of section .text:

0000000000000120 <.text>:
      36:	18 02 00 00 00 00 00 00 00 00 00 00 03 00 00 00	r2 = 0x300000000 ll
      38:	79 23 00 00 00 00 00 00	r3 = *(u64 *)(r2 + 0x0)
      39:	bf 32 00 00 00 00 00 00	r2 = r3
      40:	07 02 00 00 e8 ff ff ff	r2 += -0x18
      41:	b7 04 00 00 00 00 00 00	r4 = 0x0
      42:	b7 05 00 00 01 00 00 00	r5 = 0x1
      43:	2d 32 01 00 00 00 00 00	if r2 > r3 goto +0x1 <.text+0x48>
      44:	b7 05 00 00 00 00 00 00	r5 = 0x0
      45:	55 05 01 00 00 00 00 00	if r5 != 0x0 goto +0x1 <.text+0x58>
      46:	bf 24 00 00 00 00 00 00	r4 = r2
      47:	18 02 00 00 e8 7f 00 00 00 00 00 00 03 00 00 00	r2 = 0x300007fe8 ll
      49:	15 03 02 00 00 00 00 00	if r3 == 0x0 goto +0x2 <.text+0x80>
      50:	57 04 00 00 f8 ff ff ff	r4 &= -0x8
      51:	bf 42 00 00 00 00 00 00	r2 = r4
      52:	18 03 00 00 07 00 00 00 00 00 00 00 03 00 00 00	r3 = 0x300000007 ll
      54:	2d 32 03 00 00 00 00 00	if r2 > r3 goto +0x3 <.text+0xb0>
      55:	b7 01 00 00 08 00 00 00	r1 = 0x8
      56:	b7 02 00 00 18 00 00 00	r2 = 0x18
      57:	85 10 00 00 a0 2e 00 00	call 0x2ea0
      58:	18 03 00 00 00 00 00 00 00 00 00 00 03 00 00 00	r3 = 0x300000000 ll
      60:	7b 23 00 00 00 00 00 00	*(u64 *)(r3 + 0x0) = r2
      61:	79 13 10 00 00 00 00 00	r3 = *(u64 *)(r1 + 0x10)
      62:	7b 32 10 00 00 00 00 00	*(u64 *)(r2 + 0x10) = r3
      63:	79 13 08 00 00 00 00 00	r3 = *(u64 *)(r1 + 0x8)
      64:	7b 32 08 00 00 00 00 00	*(u64 *)(r2 + 0x8) = r3
      65:	79 11 00 00 00 00 00 00	r1 = *(u64 *)(r1 + 0x0)
      66:	7b 12 00 00 00 00 00 00	*(u64 *)(r2 + 0x0) = r1
      67:	b7 01 00 00 15 00 00 00	r1 = 0x15
      68:	18 03 00 00 80 3e 02 00 00 00 00 00 00 00 00 00	r3 = 0x23e80 ll
      70:	85 10 00 00 0d 2d 00 00	call 0x2d0d
      71:	95 00 00 00 00 00 00 00	exit
      72:	79 11 00 00 00 00 00 00	r1 = *(u64 *)(r1 + 0x0)
      73:	bf 13 00 00 00 00 00 00	r3 = r1
      74:	07 03 00 00 10 00 00 00	r3 += 0x10
      75:	7b 3a f8 ff 00 00 00 00	*(u64 *)(r10 - 0x8) = r3
      76:	18 03 00 00 68 3f 02 00 00 00 00 00 00 00 00 00	r3 = 0x23f68 ll
      78:	7b 3a 30 f0 00 00 00 00	*(u64 *)(r10 - 0xfd0) = r3
      79:	bf a3 00 00 00 00 00 00	r3 = r10
      80:	07 03 00 00 f8 ff ff ff	r3 += -0x8
      81:	7b 3a 28 f0 00 00 00 00	*(u64 *)(r10 - 0xfd8) = r3
      82:	18 03 00 00 a6 0d 02 00 00 00 00 00 00 00 00 00	r3 = 0x20da6 ll
      84:	7b 3a 18 f0 00 00 00 00	*(u64 *)(r10 - 0xfe8) = r3
      85:	18 03 00 00 48 3f 02 00 00 00 00 00 00 00 00 00	r3 = 0x23f48 ll
      87:	7b 3a 10 f0 00 00 00 00	*(u64 *)(r10 - 0xff0) = r3
      88:	7b 1a 08 f0 00 00 00 00	*(u64 *)(r10 - 0xff8) = r1
      89:	7a 0a 20 f0 04 00 00 00	*(u64 *)(r10 - 0xfe0) = 0x4
      90:	7a 0a 00 f0 08 00 00 00	*(u64 *)(r10 - 0x1000) = 0x8
      91:	bf a5 00 00 00 00 00 00	r5 = r10
      92:	bf 21 00 00 00 00 00 00	r1 = r2
      93:	18 02 00 00 80 0d 02 00 00 00 00 00 00 00 00 00	r2 = 0x20d80 ll
      95:	b7 03 00 00 06 00 00 00	r3 = 0x6
      96:	18 04 00 00 86 0d 02 00 00 00 00 00 00 00 00 00	r4 = 0x20d86 ll
      98:	85 10 00 00 8f 34 00 00	call 0x348f
      99:	95 00 00 00 00 00 00 00	exit
     100:	79 11 00 00 00 00 00 00	r1 = *(u64 *)(r1 + 0x0)
     101:	79 13 00 00 00 00 00 00	r3 = *(u64 *)(r1 + 0x0)
     102:	07 01 00 00 08 00 00 00	r1 += 0x8
     103:	55 03 0a 00 00 00 00 00	if r3 != 0x0 goto +0xa <.text+0x270>
     104:	7b 1a f8 ff 00 00 00 00	*(u64 *)(r10 - 0x8) = r1
     105:	bf a4 00 00 00 00 00 00	r4 = r10
     106:	07 04 00 00 f8 ff ff ff	r4 += -0x8
     107:	bf 21 00 00 00 00 00 00	r1 = r2
     108:	18 02 00 00 80 0d 02 00 00 00 00 00 00 00 00 00	r2 = 0x20d80 ll
     110:	b7 03 00 00 06 00 00 00	r3 = 0x6
     111:	18 05 00 00 48 40 02 00 00 00 00 00 00 00 00 00	r5 = 0x24048 ll
     113:	05 00 09 00 00 00 00 00	goto +0x9 <.text+0x2b8>
     114:	7b 1a f8 ff 00 00 00 00	*(u64 *)(r10 - 0x8) = r1
     115:	bf a4 00 00 00 00 00 00	r4 = r10
     116:	07 04 00 00 f8 ff ff ff	r4 += -0x8
     117:	bf 21 00 00 00 00 00 00	r1 = r2
     118:	18 02 00 00 f1 0d 02 00 00 00 00 00 00 00 00 00	r2 = 0x20df1 ll
     120:	b7 03 00 00 0b 00 00 00	r3 = 0xb
     121:	18 05 00 00 20 3e 02 00 00 00 00 00 00 00 00 00	r5 = 0x23e20 ll
     123:	85 10 00 00 f0 34 00 00	call 0x34f0
     124:	95 00 00 00 00 00 00 00	exit
     125:	79 17 00 00 00 00 00 00	r7 = *(u64 *)(r1 + 0x0)
     126:	bf a6 00 00 00 00 00 00	r6 = r10
     127:	07 06 00 00 d8 ff ff ff	r6 += -0x28
     128:	bf 61 00 00 00 00 00 00	r1 = r6
     129:	b7 03 00 00 01 00 00 00	r3 = 0x1
     130:	b7 04 00 00 00 00 00 00	r4 = 0x0
     131:	85 10 00 00 d7 34 00 00	call 0x34d7
     132:	7b 7a f0 ff 00 00 00 00	*(u64 *)(r10 - 0x10) = r7
     133:	07 07 00 00 20 00 00 00	r7 += 0x20
     134:	7b 7a f8 ff 00 00 00 00	*(u64 *)(r10 - 0x8) = r7
     135:	bf a2 00 00 00 00 00 00	r2 = r10
     136:	07 02 00 00 f0 ff ff ff	r2 += -0x10
     137:	bf 61 00 00 00 00 00 00	r1 = r6
     138:	18 03 00 00 40 3e 02 00 00 00 00 00 00 00 00 00	r3 = 0x23e40 ll
     140:	85 10 00 00 0e 31 00 00	call 0x310e
     141:	bf a2 00 00 00 00 00 00	r2 = r10
     142:	07 02 00 00 f8 ff ff ff	r2 += -0x8
     143:	bf 61 00 00 00 00 00 00	r1 = r6
     144:	18 03 00 00 40 3e 02 00 00 00 00 00 00 00 00 00	r3 = 0x23e40 ll
     146:	85 10 00 00 08 31 00 00	call 0x3108
     147:	bf 61 00 00 00 00 00 00	r1 = r6
     148:	85 10 00 00 63 31 00 00	call 0x3163
     149:	95 00 00 00 00 00 00 00	exit
     150:	bf 23 00 00 00 00 00 00	r3 = r2
     151:	79 11 00 00 00 00 00 00	r1 = *(u64 *)(r1 + 0x0)
     152:	79 12 10 00 00 00 00 00	r2 = *(u64 *)(r1 + 0x10)
     153:	79 11 08 00 00 00 00 00	r1 = *(u64 *)(r1 + 0x8)
     154:	85 10 00 00 e9 34 00 00	call 0x34e9
     155:	95 00 00 00 00 00 00 00	exit
     156:	79 11 00 00 00 00 00 00	r1 = *(u64 *)(r1 + 0x0)
     157:	79 11 00 00 00 00 00 00	r1 = *(u64 *)(r1 + 0x0)
     158:	bf 13 00 00 00 00 00 00	r3 = r1
     159:	07 03 00 00 38 00 00 00	r3 += 0x38
     160:	7b 3a f8 ff 00 00 00 00	*(u64 *)(r10 - 0x8) = r3
     161:	18 03 00 00 28 40 02 00 00 00 00 00 00 00 00 00	r3 = 0x24028 ll
     163:	7b 3a 50 f0 00 00 00 00	*(u64 *)(r10 - 0xfb0) = r3
     164:	bf a3 00 00 00 00 00 00	r3 = r10
     165:	07 03 00 00 f8 ff ff ff	r3 += -0x8
     166:	7b 3a 48 f0 00 00 00 00	*(u64 *)(r10 - 0xfb8) = r3
     167:	18 03 00 00 e2 0d 02 00 00 00 00 00 00 00 00 00	r3 = 0x20de2 ll
     169:	7b 3a 38 f0 00 00 00 00	*(u64 *)(r10 - 0xfc8) = r3
     170:	18 03 00 00 08 40 02 00 00 00 00 00 00 00 00 00	r3 = 0x24008 ll
     172:	7b 3a 30 f0 00 00 00 00	*(u64 *)(r10 - 0xfd0) = r3
     173:	18 03 00 00 d6 0d 02 00 00 00 00 00 00 00 00 00	r3 = 0x20dd6 ll
     175:	7b 3a 18 f0 00 00 00 00	*(u64 *)(r10 - 0xfe8) = r3
     176:	18 03 00 00 f8 40 02 00 00 00 00 00 00 00 00 00	r3 = 0x240f8 ll
     178:	7b 3a 10 f0 00 00 00 00	*(u64 *)(r10 - 0xff0) = r3
     179:	7b 1a 28 f0 00 00 00 00	*(u64 *)(r10 - 0xfd8) = r1
     180:	07 01 00 00 20 00 00 00	r1 += 0x20
     181:	7b 1a 08 f0 00 00 00 00	*(u64 *)(r10 - 0xff8) = r1
     182:	7a 0a 40 f0 0f 00 00 00	*(u64 *)(r10 - 0xfc0) = 0xf
     183:	7a 0a 20 f0 0c 00 00 00	*(u64 *)(r10 - 0xfe0) = 0xc
     184:	7a 0a 00 f0 0d 00 00 00	*(u64 *)(r10 - 0x1000) = 0xd
     185:	bf a5 00 00 00 00 00 00	r5 = r10
     186:	bf 21 00 00 00 00 00 00	r1 = r2
     187:	18 02 00 00 3b 10 02 00 00 00 00 00 00 00 00 00	r2 = 0x2103b ll
     189:	b7 03 00 00 16 00 00 00	r3 = 0x16
     190:	18 04 00 00 51 10 02 00 00 00 00 00 00 00 00 00	r4 = 0x21051 ll
     192:	85 10 00 00 4c 34 00 00	call 0x344c
     193:	95 00 00 00 00 00 00 00	exit
     194:	79 11 00 00 00 00 00 00	r1 = *(u64 *)(r1 + 0x0)
     195:	85 10 00 00 2b 29 00 00	call 0x292b
     196:	95 00 00 00 00 00 00 00	exit
     197:	79 11 00 00 00 00 00 00	r1 = *(u64 *)(r1 + 0x0)
     198:	71 13 00 00 00 00 00 00	r3 = *(u8 *)(r1 + 0x0)
     199:	55 03 0b 00 00 00 00 00	if r3 != 0x0 goto +0xb <.text+0x578>
     200:	07 01 00 00 08 00 00 00	r1 += 0x8
     201:	7b 1a f8 ff 00 00 00 00	*(u64 *)(r10 - 0x8) = r1
     202:	bf a4 00 00 00 00 00 00	r4 = r10
     203:	07 04 00 00 f8 ff ff ff	r4 += -0x8
     204:	bf 21 00 00 00 00 00 00	r1 = r2
     205:	18 02 00 00 fc 0d 02 00 00 00 00 00 00 00 00 00	r2 = 0x20dfc ll
     207:	b7 03 00 00 06 00 00 00	r3 = 0x6
     208:	18 05 00 00 68 40 02 00 00 00 00 00 00 00 00 00	r5 = 0x24068 ll
     210:	05 00 0a 00 00 00 00 00	goto +0xa <.text+0x5c8>
     211:	07 01 00 00 01 00 00 00	r1 += 0x1
     212:	7b 1a f8 ff 00 00 00 00	*(u64 *)(r10 - 0x8) = r1
     213:	bf a4 00 00 00 00 00 00	r4 = r10
     214:	07 04 00 00 f8 ff ff ff	r4 += -0x8
     215:	bf 21 00 00 00 00 00 00	r1 = r2
     216:	18 02 00 00 02 0e 02 00 00 00 00 00 00 00 00 00	r2 = 0x20e02 ll
     218:	b7 03 00 00 07 00 00 00	r3 = 0x7
     219:	18 05 00 00 88 40 02 00 00 00 00 00 00 00 00 00	r5 = 0x24088 ll
     221:	85 10 00 00 8e 34 00 00	call 0x348e
     222:	95 00 00 00 00 00 00 00	exit
     223:	79 17 00 00 00 00 00 00	r7 = *(u64 *)(r1 + 0x0)
     224:	bf a6 00 00 00 00 00 00	r6 = r10
     225:	07 06 00 00 d8 ff ff ff	r6 += -0x28
     226:	bf 61 00 00 00 00 00 00	r1 = r6
     227:	b7 03 00 00 01 00 00 00	r3 = 0x1
     228:	b7 04 00 00 00 00 00 00	r4 = 0x0
     229:	85 10 00 00 75 34 00 00	call 0x3475
     230:	7b 7a f0 ff 00 00 00 00	*(u64 *)(r10 - 0x10) = r7
     231:	07 07 00 00 18 00 00 00	r7 += 0x18
     232:	7b 7a f8 ff 00 00 00 00	*(u64 *)(r10 - 0x8) = r7
     233:	bf a2 00 00 00 00 00 00	r2 = r10
     234:	07 02 00 00 f0 ff ff ff	r2 += -0x10
     235:	bf 61 00 00 00 00 00 00	r1 = r6
     236:	18 03 00 00 20 3e 02 00 00 00 00 00 00 00 00 00	r3 = 0x23e20 ll
     238:	85 10 00 00 ac 30 00 00	call 0x30ac
     239:	bf a2 00 00 00 00 00 00	r2 = r10
     240:	07 02 00 00 f8 ff ff ff	r2 += -0x8
     241:	bf 61 00 00 00 00 00 00	r1 = r6
     242:	18 03 00 00 20 3e 02 00 00 00 00 00 00 00 00 00	r3 = 0x23e20 ll
     244:	85 10 00 00 a6 30 00 00	call 0x30a6
     245:	bf 61 00 00 00 00 00 00	r1 = r6
     246:	85 10 00 00 01 31 00 00	call 0x3101
     247:	95 00 00 00 00 00 00 00	exit
     248:	79 11 00 00 00 00 00 00	r1 = *(u64 *)(r1 + 0x0)
     249:	71 13 00 00 00 00 00 00	r3 = *(u8 *)(r1 + 0x0)
     250:	55 03 06 00 02 00 00 00	if r3 != 0x2 goto +0x6 <.text+0x6e8>
     251:	bf 21 00 00 00 00 00 00	r1 = r2
     252:	18 02 00 00 aa 0d 02 00 00 00 00 00 00 00 00 00	r2 = 0x20daa ll
     254:	b7 03 00 00 04 00 00 00	r3 = 0x4
     255:	85 10 00 00 ec 33 00 00	call 0x33ec
     256:	05 00 0a 00 00 00 00 00	goto +0xa <.text+0x738>
     257:	7b 1a f8 ff 00 00 00 00	*(u64 *)(r10 - 0x8) = r1
     258:	bf a4 00 00 00 00 00 00	r4 = r10
     259:	07 04 00 00 f8 ff ff ff	r4 += -0x8
     260:	bf 21 00 00 00 00 00 00	r1 = r2
     261:	18 02 00 00 9e 0d 02 00 00 00 00 00 00 00 00 00	r2 = 0x20d9e ll
     263:	b7 03 00 00 04 00 00 00	r3 = 0x4
     264:	18 05 00 00 a8 3f 02 00 00 00 00 00 00 00 00 00	r5 = 0x23fa8 ll
     266:	85 10 00 00 61 34 00 00	call 0x3461
     267:	95 00 00 00 00 00 00 00	exit
     268:	79 11 00 00 00 00 00 00	r1 = *(u64 *)(r1 + 0x0)
     269:	79 11 00 00 00 00 00 00	r1 = *(u64 *)(r1 + 0x0)
     270:	bf 13 00 00 00 00 00 00	r3 = r1
     271:	07 03 00 00 50 00 00 00	r3 += 0x50
     272:	7b 3a f8 ff 00 00 00 00	*(u64 *)(r10 - 0x8) = r3
     273:	18 03 00 00 28 40 02 00 00 00 00 00 00 00 00 00	r3 = 0x24028 ll
     275:	7b 3a 90 f0 00 00 00 00	*(u64 *)(r10 - 0xf70) = r3
     276:	bf a3 00 00 00 00 00 00	r3 = r10
     277:	07 03 00 00 f8 ff ff ff	r3 += -0x8
     278:	7b 3a 88 f0 00 00 00 00	*(u64 *)(r10 - 0xf78) = r3
     279:	18 03 00 00 e2 0d 02 00 00 00 00 00 00 00 00 00	r3 = 0x20de2 ll
     281:	7b 3a 78 f0 00 00 00 00	*(u64 *)(r10 - 0xf88) = r3
     282:	18 03 00 00 08 40 02 00 00 00 00 00 00 00 00 00	r3 = 0x24008 ll
     284:	7b 3a 70 f0 00 00 00 00	*(u64 *)(r10 - 0xf90) = r3
     285:	18 03 00 00 d6 0d 02 00 00 00 00 00 00 00 00 00	r3 = 0x20dd6 ll
     287:	7b 3a 58 f0 00 00 00 00	*(u64 *)(r10 - 0xfa8) = r3
     288:	bf 13 00 00 00 00 00 00	r3 = r1
     289:	07 03 00 00 38 00 00 00	r3 += 0x38
     290:	7b 3a 48 f0 00 00 00 00	*(u64 *)(r10 - 0xfb8) = r3
     291:	18 03 00 00 cd 0d 02 00 00 00 00 00 00 00 00 00	r3 = 0x20dcd ll
     293:	7b 3a 38 f0 00 00 00 00	*(u64 *)(r10 - 0xfc8) = r3
     294:	18 03 00 00 e8 3f 02 00 00 00 00 00 00 00 00 00	r3 = 0x23fe8 ll
     296:	7b 3a 30 f0 00 00 00 00	*(u64 *)(r10 - 0xfd0) = r3
     297:	bf 13 00 00 00 00 00 00	r3 = r1
     298:	07 03 00 00 98 00 00 00	r3 += 0x98
     299:	7b 3a 28 f0 00 00 00 00	*(u64 *)(r10 - 0xfd8) = r3
     300:	18 03 00 00 bc 0d 02 00 00 00 00 00 00 00 00 00	r3 = 0x20dbc ll
     302:	7b 3a 18 f0 00 00 00 00	*(u64 *)(r10 - 0xfe8) = r3
     303:	18 03 00 00 c8 3f 02 00 00 00 00 00 00 00 00 00	r3 = 0x23fc8 ll
     305:	7b 3a 50 f0 00 00 00 00	*(u64 *)(r10 - 0xfb0) = r3
     306:	7b 3a 10 f0 00 00 00 00	*(u64 *)(r10 - 0xff0) = r3
     307:	7b 1a 68 f0 00 00 00 00	*(u64 *)(r10 - 0xf98) = r1
     308:	07 01 00 00 20 00 00 00	r1 += 0x20
     309:	7b 1a 08 f0 00 00 00 00	*(u64 *)(r10 - 0xff8) = r1
     310:	7a 0a 80 f0 0f 00 00 00	*(u64 *)(r10 - 0xf80) = 0xf
     311:	7a 0a 60 f0 0c 00 00 00	*(u64 *)(r10 - 0xfa0) = 0xc
     312:	7a 0a 40 f0 09 00 00 00	*(u64 *)(r10 - 0xfc0) = 0x9
     313:	7a 0a 20 f0 11 00 00 00	*(u64 *)(r10 - 0xfe0) = 0x11
     314:	7a 0a 00 f0 0a 00 00 00	*(u64 *)(r10 - 0x1000) = 0xa
     315:	bf a5 00 00 00 00 00 00	r5 = r10
     316:	bf 21 00 00 00 00 00 00	r1 = r2
     317:	18 02 00 00 69 0d 02 00 00 00 00 00 00 00 00 00	r2 = 0x20d69 ll
     319:	b7 03 00 00 0b 00 00 00	r3 = 0xb
     320:	18 04 00 00 b2 0d 02 00 00 00 00 00 00 00 00 00	r4 = 0x20db2 ll
     322:	85 10 00 00 eb 33 00 00	call 0x33eb
     323:	95 00 00 00 00 00 00 00	exit
     324:	bf 23 00 00 00 00 00 00	r3 = r2
     325:	79 12 08 00 00 00 00 00	r2 = *(u64 *)(r1 + 0x8)
     326:	79 11 00 00 00 00 00 00	r1 = *(u64 *)(r1 + 0x0)
     327:	85 10 00 00 3c 34 00 00	call 0x343c
     328:	95 00 00 00 00 00 00 00	exit
     329:	79 11 00 00 00 00 00 00	r1 = *(u64 *)(r1 + 0x0)
     330:	61 23 34 00 00 00 00 00	r3 = *(u32 *)(r2 + 0x34)
     331:	bf 34 00 00 00 00 00 00	r4 = r3
     332:	57 04 00 00 10 00 00 00	r4 &= 0x10
     333:	55 04 05 00 00 00 00 00	if r4 != 0x0 goto +0x5 <.text+0x978>
     334:	57 03 00 00 20 00 00 00	r3 &= 0x20
     335:	15 03 01 00 00 00 00 00	if r3 == 0x0 goto +0x1 <.text+0x968>
     336:	05 00 04 00 00 00 00 00	goto +0x4 <.text+0x988>
     337:	85 10 00 00 bc 39 00 00	call 0x39bc
     338:	05 00 03 00 00 00 00 00	goto +0x3 <.text+0x990>
     339:	85 10 00 00 13 39 00 00	call 0x3913
     340:	05 00 01 00 00 00 00 00	goto +0x1 <.text+0x990>
     341:	85 10 00 00 15 39 00 00	call 0x3915
     342:	95 00 00 00 00 00 00 00	exit
     343:	79 11 00 00 00 00 00 00	r1 = *(u64 *)(r1 + 0x0)
     344:	85 10 00 00 9e 2e 00 00	call 0x2e9e
     345:	95 00 00 00 00 00 00 00	exit
     346:	61 23 34 00 00 00 00 00	r3 = *(u32 *)(r2 + 0x34)
     347:	bf 34 00 00 00 00 00 00	r4 = r3
     348:	57 04 00 00 10 00 00 00	r4 &= 0x10
     349:	55 04 05 00 00 00 00 00	if r4 != 0x0 goto +0x5 <.text+0x9f8>
     350:	57 03 00 00 20 00 00 00	r3 &= 0x20
     351:	15 03 01 00 00 00 00 00	if r3 == 0x0 goto +0x1 <.text+0x9e8>
     352:	05 00 04 00 00 00 00 00	goto +0x4 <.text+0xa08>
     353:	85 10 00 00 0d 39 00 00	call 0x390d
     354:	05 00 03 00 00 00 00 00	goto +0x3 <.text+0xa10>
     355:	85 10 00 00 fb 38 00 00	call 0x38fb
     356:	05 00 01 00 00 00 00 00	goto +0x1 <.text+0xa10>
     357:	85 10 00 00 fd 38 00 00	call 0x38fd
     358:	95 00 00 00 00 00 00 00	exit
     359:	61 23 34 00 00 00 00 00	r3 = *(u32 *)(r2 + 0x34)
     360:	bf 34 00 00 00 00 00 00	r4 = r3
     361:	57 04 00 00 10 00 00 00	r4 &= 0x10
     362:	55 04 05 00 00 00 00 00	if r4 != 0x0 goto +0x5 <.text+0xa60>
     363:	57 03 00 00 20 00 00 00	r3 &= 0x20
     364:	15 03 01 00 00 00 00 00	if r3 == 0x0 goto +0x1 <.text+0xa50>
     365:	05 00 04 00 00 00 00 00	goto +0x4 <.text+0xa70>
     366:	85 10 00 00 9f 39 00 00	call 0x399f
     367:	05 00 03 00 00 00 00 00	goto +0x3 <.text+0xa78>
     368:	85 10 00 00 f6 38 00 00	call 0x38f6
     369:	05 00 01 00 00 00 00 00	goto +0x1 <.text+0xa78>
     370:	85 10 00 00 f8 38 00 00	call 0x38f8
     371:	95 00 00 00 00 00 00 00	exit
     372:	bf 23 00 00 00 00 00 00	r3 = r2
     373:	18 02 00 00 a8 40 02 00 00 00 00 00 00 00 00 00	r2 = 0x240a8 ll
     375:	85 10 00 00 68 31 00 00	call 0x3168
     376:	95 00 00 00 00 00 00 00	exit
     377:	95 00 00 00 00 00 00 00	exit
     378:	95 00 00 00 00 00 00 00	exit
     379:	79 12 08 00 00 00 00 00	r2 = *(u64 *)(r1 + 0x8)
     380:	79 11 00 00 00 00 00 00	r1 = *(u64 *)(r1 + 0x0)
     381:	55 01 05 00 00 00 00 00	if r1 != 0x0 goto +0x5 <.text+0xaf8>
     382:	79 21 00 00 00 00 00 00	r1 = *(u64 *)(r2 + 0x0)
     383:	15 01 00 00 02 00 00 00	if r1 == 0x2 goto +0x0 <.text+0xae0>
     384:	71 21 50 00 00 00 00 00	r1 = *(u8 *)(r2 + 0x50)
     385:	55 01 05 00 00 00 00 00	if r1 != 0x0 goto +0x5 <.text+0xb18>
     386:	05 00 04 00 00 00 00 00	goto +0x4 <.text+0xb18>
     387:	79 21 00 00 00 00 00 00	r1 = *(u64 *)(r2 + 0x0)
     388:	15 01 00 00 02 00 00 00	if r1 == 0x2 goto +0x0 <.text+0xb08>
     389:	71 21 38 00 00 00 00 00	r1 = *(u8 *)(r2 + 0x38)
     390:	55 01 00 00 00 00 00 00	if r1 != 0x0 goto +0x0 <.text+0xb18>
     391:	95 00 00 00 00 00 00 00	exit
     392:	95 00 00 00 00 00 00 00	exit
     393:	79 11 00 00 00 00 00 00	r1 = *(u64 *)(r1 + 0x0)
     394:	55 01 00 00 02 00 00 00	if r1 != 0x2 goto +0x0 <.text+0xb38>
     395:	95 00 00 00 00 00 00 00	exit
     396:	b7 00 00 00 1a 00 00 00	r0 = 0x1a
     397:	79 13 48 00 00 00 00 00	r3 = *(u64 *)(r1 + 0x48)
     398:	79 12 50 00 00 00 00 00	r2 = *(u64 *)(r1 + 0x50)
     399:	7b 2a e0 ff 00 00 00 00	*(u64 *)(r10 - 0x20) = r2
     400:	3d 23 58 00 00 00 00 00	if r3 >= r2 goto +0x58 <.text+0xe28>
     401:	bf 32 00 00 00 00 00 00	r2 = r3
     402:	27 02 00 00 38 00 00 00	r2 *= 0x38
     403:	79 16 38 00 00 00 00 00	r6 = *(u64 *)(r1 + 0x38)
     404:	0f 26 00 00 00 00 00 00	r6 += r2
     405:	79 12 20 00 00 00 00 00	r2 = *(u64 *)(r1 + 0x20)
     406:	bf 38 00 00 00 00 00 00	r8 = r3
     407:	0f 28 00 00 00 00 00 00	r8 += r2
     408:	bf 82 00 00 00 00 00 00	r2 = r8
     409:	67 02 00 00 03 00 00 00	r2 <<= 0x3
     410:	79 14 00 00 00 00 00 00	r4 = *(u64 *)(r1 + 0x0)
     411:	0f 24 00 00 00 00 00 00	r4 += r2
     412:	67 08 00 00 04 00 00 00	r8 <<= 0x4
     413:	7b 1a d8 ff 00 00 00 00	*(u64 *)(r10 - 0x28) = r1
     414:	79 11 10 00 00 00 00 00	r1 = *(u64 *)(r1 + 0x10)
     415:	0f 18 00 00 00 00 00 00	r8 += r1
     416:	07 08 00 00 08 00 00 00	r8 += 0x8
     417:	05 00 19 00 00 00 00 00	goto +0x19 <.text+0xcb8>
     418:	79 74 50 00 00 00 00 00	r4 = *(u64 *)(r7 + 0x50)
     419:	bf 75 00 00 00 00 00 00	r5 = r7
     420:	07 05 00 00 28 00 00 00	r5 += 0x28
     421:	7b 56 20 00 00 00 00 00	*(u64 *)(r6 + 0x20) = r5
     422:	bf 75 00 00 00 00 00 00	r5 = r7
     423:	07 05 00 00 58 00 00 00	r5 += 0x58
     424:	7b 56 18 00 00 00 00 00	*(u64 *)(r6 + 0x18) = r5
     425:	7b 46 10 00 00 00 00 00	*(u64 *)(r6 + 0x10) = r4
     426:	07 07 00 00 48 00 00 00	r7 += 0x48
     427:	7b 76 08 00 00 00 00 00	*(u64 *)(r6 + 0x8) = r7
     428:	7b 96 00 00 00 00 00 00	*(u64 *)(r6 + 0x0) = r9
     429:	73 26 32 00 00 00 00 00	*(u8 *)(r6 + 0x32) = r2
     430:	73 36 31 00 00 00 00 00	*(u8 *)(r6 + 0x31) = r3
     431:	73 16 30 00 00 00 00 00	*(u8 *)(r6 + 0x30) = r1
     432:	b7 00 00 00 1a 00 00 00	r0 = 0x1a
     433:	07 08 00 00 10 00 00 00	r8 += 0x10
     434:	79 a4 f0 ff 00 00 00 00	r4 = *(u64 *)(r10 - 0x10)
     435:	07 04 00 00 08 00 00 00	r4 += 0x8
     436:	7a 06 28 00 00 00 00 00	*(u64 *)(r6 + 0x28) = 0x0
     437:	07 06 00 00 38 00 00 00	r6 += 0x38
     438:	79 a1 e0 ff 00 00 00 00	r1 = *(u64 *)(r10 - 0x20)
     439:	bf 12 00 00 00 00 00 00	r2 = r1
     440:	79 a3 e8 ff 00 00 00 00	r3 = *(u64 *)(r10 - 0x18)
     441:	ad 13 01 00 00 00 00 00	if r3 < r1 goto +0x1 <.text+0xcb8>
     442:	05 00 2c 00 00 00 00 00	goto +0x2c <.text+0xe18>
     443:	7b 4a f0 ff 00 00 00 00	*(u64 *)(r10 - 0x10) = r4
     444:	7b 8a f8 ff 00 00 00 00	*(u64 *)(r10 - 0x8) = r8
     445:	79 82 f8 ff 00 00 00 00	r2 = *(u64 *)(r8 - 0x8)
     446:	79 41 00 00 00 00 00 00	r1 = *(u64 *)(r4 + 0x0)
     447:	79 17 00 00 00 00 00 00	r7 = *(u64 *)(r1 + 0x0)
     448:	bf 79 00 00 00 00 00 00	r9 = r7
     449:	07 09 00 00 08 00 00 00	r9 += 0x8
     450:	bf 91 00 00 00 00 00 00	r1 = r9
     451:	bf 38 00 00 00 00 00 00	r8 = r3
     452:	b7 03 00 00 20 00 00 00	r3 = 0x20
     453:	85 10 00 00 c9 3a 00 00	call 0x3ac9
     454:	bf 83 00 00 00 00 00 00	r3 = r8
     455:	79 a8 f8 ff 00 00 00 00	r8 = *(u64 *)(r10 - 0x8)
     456:	bf 01 00 00 00 00 00 00	r1 = r0
     457:	b7 00 00 00 01 00 00 00	r0 = 0x1
     458:	07 03 00 00 01 00 00 00	r3 += 0x1
     459:	67 01 00 00 20 00 00 00	r1 <<= 0x20
     460:	77 01 00 00 20 00 00 00	r1 >>= 0x20
     461:	bf 32 00 00 00 00 00 00	r2 = r3
     462:	55 01 18 00 00 00 00 00	if r1 != 0x0 goto +0x18 <.text+0xe18>
     463:	71 82 00 00 00 00 00 00	r2 = *(u8 *)(r8 + 0x0)
     464:	b7 01 00 00 00 00 00 00	r1 = 0x0
     465:	55 02 01 00 00 00 00 00	if r2 != 0x0 goto +0x1 <.text+0xd78>
     466:	b7 01 00 00 77 00 00 00	r1 = 0x77
     467:	71 72 00 00 00 00 00 00	r2 = *(u8 *)(r7 + 0x0)
     468:	4f 21 00 00 00 00 00 00	r1 |= r2
     469:	57 01 00 00 ff 00 00 00	r1 &= 0xff
     470:	55 01 0e 00 ff 00 00 00	if r1 != 0xff goto +0xe <.text+0xe08>
     471:	7b 3a e8 ff 00 00 00 00	*(u64 *)(r10 - 0x18) = r3
     472:	71 73 01 00 00 00 00 00	r3 = *(u8 *)(r7 + 0x1)
     473:	b7 02 00 00 01 00 00 00	r2 = 0x1
     474:	b7 01 00 00 01 00 00 00	r1 = 0x1
     475:	55 03 01 00 00 00 00 00	if r3 != 0x0 goto +0x1 <.text+0xdc8>
     476:	b7 01 00 00 00 00 00 00	r1 = 0x0
     477:	71 74 02 00 00 00 00 00	r4 = *(u8 *)(r7 + 0x2)
     478:	b7 03 00 00 01 00 00 00	r3 = 0x1
     479:	55 04 01 00 00 00 00 00	if r4 != 0x0 goto +0x1 <.text+0xde8>
     480:	b7 03 00 00 00 00 00 00	r3 = 0x0
     481:	71 74 03 00 00 00 00 00	r4 = *(u8 *)(r7 + 0x3)
     482:	55 04 bf ff 00 00 00 00	if r4 != 0x0 goto -0x41 <.text+0xbf0>
     483:	b7 02 00 00 00 00 00 00	r2 = 0x0
     484:	05 00 bd ff 00 00 00 00	goto -0x43 <.text+0xbf0>
     485:	b7 00 00 00 0b 00 00 00	r0 = 0xb
     486:	bf 32 00 00 00 00 00 00	r2 = r3
     487:	79 a1 d8 ff 00 00 00 00	r1 = *(u64 *)(r10 - 0x28)
     488:	7b 21 48 00 00 00 00 00	*(u64 *)(r1 + 0x48) = r2
     489:	95 00 00 00 00 00 00 00	exit
     490:	7a 01 00 00 00 00 00 00	*(u64 *)(r1 + 0x0) = 0x0
     491:	95 00 00 00 00 00 00 00	exit
     492:	95 00 00 00 00 00 00 00	exit
     493:	18 02 00 00 0a d4 f4 ae 00 00 00 00 79 4c 27 94	r2 = -0x6bd8b386510b2bf6 ll
     495:	7b 21 08 00 00 00 00 00	*(u64 *)(r1 + 0x8) = r2
     496:	18 02 00 00 da 72 29 06 00 00 00 00 c9 d8 d8 17	r2 = 0x17d8d8c9062972da ll
     498:	7b 21 00 00 00 00 00 00	*(u64 *)(r1 + 0x0) = r2
     499:	95 00 00 00 00 00 00 00	exit
     500:	bf 21 00 00 00 00 00 00	r1 = r2
     501:	18 02 00 00 bb 0c 02 00 00 00 00 00 00 00 00 00	r2 = 0x20cbb ll
     503:	b7 03 00 00 05 00 00 00	r3 = 0x5
     504:	85 10 00 00 f3 32 00 00	call 0x32f3
     505:	95 00 00 00 00 00 00 00	exit
     506:	bf 23 00 00 00 00 00 00	r3 = r2
     507:	79 12 10 00 00 00 00 00	r2 = *(u64 *)(r1 + 0x10)
     508:	79 11 08 00 00 00 00 00	r1 = *(u64 *)(r1 + 0x8)
     509:	85 10 00 00 86 33 00 00	call 0x3386
     510:	95 00 00 00 00 00 00 00	exit
     511:	bf 16 00 00 00 00 00 00	r6 = r1
     512:	bf 21 00 00 00 00 00 00	r1 = r2
     513:	67 01 00 00 20 00 00 00	r1 <<= 0x20
     514:	77 01 00 00 20 00 00 00	r1 >>= 0x20
     515:	a5 01 18 00 80 00 00 00	if r1 < 0x80 goto +0x18 <.text+0xfc0>
     516:	62 0a fc ff 00 00 00 00	*(u32 *)(r10 - 0x4) = 0x0
     517:	a5 01 23 00 00 08 00 00	if r1 < 0x800 goto +0x23 <.text+0x1028>
     518:	bf 21 00 00 00 00 00 00	r1 = r2
     519:	67 01 00 00 20 00 00 00	r1 <<= 0x20
     520:	77 01 00 00 20 00 00 00	r1 >>= 0x20
     521:	a5 01 27 00 00 00 01 00	if r1 < 0x10000 goto +0x27 <.text+0x1068>
     522:	bf a1 00 00 00 00 00 00	r1 = r10
     523:	07 01 00 00 ff ff ff ff	r1 += -0x1
     524:	bf 23 00 00 00 00 00 00	r3 = r2
     525:	77 03 00 00 12 00 00 00	r3 >>= 0x12
     526:	47 03 00 00 f0 00 00 00	r3 |= 0xf0
     527:	73 3a fc ff 00 00 00 00	*(u8 *)(r10 - 0x4) = r3
     528:	bf 23 00 00 00 00 00 00	r3 = r2
     529:	77 03 00 00 06 00 00 00	r3 >>= 0x6
     530:	57 03 00 00 3f 00 00 00	r3 &= 0x3f
     531:	47 03 00 00 80 00 00 00	r3 |= 0x80
     532:	73 3a fe ff 00 00 00 00	*(u8 *)(r10 - 0x2) = r3
     533:	bf 23 00 00 00 00 00 00	r3 = r2
     534:	77 03 00 00 0c 00 00 00	r3 >>= 0xc
     535:	57 03 00 00 3f 00 00 00	r3 &= 0x3f
     536:	47 03 00 00 80 00 00 00	r3 |= 0x80
     537:	73 3a fd ff 00 00 00 00	*(u8 *)(r10 - 0x3) = r3
     538:	b7 07 00 00 04 00 00 00	r7 = 0x4
     539:	05 00 21 00 00 00 00 00	goto +0x21 <.text+0x10c8>
     540:	79 67 10 00 00 00 00 00	r7 = *(u64 *)(r6 + 0x10)
     541:	79 61 00 00 00 00 00 00	r1 = *(u64 *)(r6 + 0x0)
     542:	5d 17 04 00 00 00 00 00	if r7 != r1 goto +0x4 <.text+0xff8>
     543:	bf 61 00 00 00 00 00 00	r1 = r6
     544:	bf 28 00 00 00 00 00 00	r8 = r2
     545:	85 10 00 00 af 00 00 00	call 0xaf
     546:	bf 82 00 00 00 00 00 00	r2 = r8
     547:	79 61 08 00 00 00 00 00	r1 = *(u64 *)(r6 + 0x8)
     548:	0f 71 00 00 00 00 00 00	r1 += r7
     549:	73 21 00 00 00 00 00 00	*(u8 *)(r1 + 0x0) = r2
     550:	07 07 00 00 01 00 00 00	r7 += 0x1
     551:	7b 76 10 00 00 00 00 00	*(u64 *)(r6 + 0x10) = r7
     552:	05 00 28 00 00 00 00 00	goto +0x28 <.text+0x1168>
     553:	bf a1 00 00 00 00 00 00	r1 = r10
     554:	07 01 00 00 fd ff ff ff	r1 += -0x3
     555:	bf 23 00 00 00 00 00 00	r3 = r2
     556:	77 03 00 00 06 00 00 00	r3 >>= 0x6
     557:	47 03 00 00 c0 00 00 00	r3 |= 0xc0
     558:	73 3a fc ff 00 00 00 00	*(u8 *)(r10 - 0x4) = r3
     559:	b7 07 00 00 02 00 00 00	r7 = 0x2
     560:	05 00 0c 00 00 00 00 00	goto +0xc <.text+0x10c8>
     561:	bf a1 00 00 00 00 00 00	r1 = r10
     562:	07 01 00 00 fe ff ff ff	r1 += -0x2
     563:	bf 23 00 00 00 00 00 00	r3 = r2
     564:	77 03 00 00 0c 00 00 00	r3 >>= 0xc
     565:	47 03 00 00 e0 00 00 00	r3 |= 0xe0
     566:	73 3a fc ff 00 00 00 00	*(u8 *)(r10 - 0x4) = r3
     567:	bf 23 00 00 00 00 00 00	r3 = r2
     568:	77 03 00 00 06 00 00 00	r3 >>= 0x6
     569:	57 03 00 00 3f 00 00 00	r3 &= 0x3f
     570:	47 03 00 00 80 00 00 00	r3 |= 0x80
     571:	73 3a fd ff 00 00 00 00	*(u8 *)(r10 - 0x3) = r3
     572:	b7 07 00 00 03 00 00 00	r7 = 0x3
     573:	57 02 00 00 3f 00 00 00	r2 &= 0x3f
     574:	47 02 00 00 80 00 00 00	r2 |= 0x80
     575:	73 21 00 00 00 00 00 00	*(u8 *)(r1 + 0x0) = r2
     576:	79 68 10 00 00 00 00 00	r8 = *(u64 *)(r6 + 0x10)
     577:	79 61 00 00 00 00 00 00	r1 = *(u64 *)(r6 + 0x0)
     578:	1f 81 00 00 00 00 00 00	r1 -= r8
     579:	3d 71 05 00 00 00 00 00	if r1 >= r7 goto +0x5 <.text+0x1128>
     580:	bf 61 00 00 00 00 00 00	r1 = r6
     581:	bf 82 00 00 00 00 00 00	r2 = r8
     582:	bf 73 00 00 00 00 00 00	r3 = r7
     583:	85 10 00 00 b0 00 00 00	call 0xb0
     584:	79 68 10 00 00 00 00 00	r8 = *(u64 *)(r6 + 0x10)
     585:	79 61 08 00 00 00 00 00	r1 = *(u64 *)(r6 + 0x8)
     586:	0f 81 00 00 00 00 00 00	r1 += r8
     587:	bf a2 00 00 00 00 00 00	r2 = r10
     588:	07 02 00 00 fc ff ff ff	r2 += -0x4
     589:	bf 73 00 00 00 00 00 00	r3 = r7
     590:	85 10 00 00 37 3a 00 00	call 0x3a37
     591:	0f 78 00 00 00 00 00 00	r8 += r7
     592:	7b 86 10 00 00 00 00 00	*(u64 *)(r6 + 0x10) = r8
     593:	b7 00 00 00 00 00 00 00	r0 = 0x0
     594:	95 00 00 00 00 00 00 00	exit
     595:	bf 36 00 00 00 00 00 00	r6 = r3
     596:	bf 17 00 00 00 00 00 00	r7 = r1
     597:	79 78 10 00 00 00 00 00	r8 = *(u64 *)(r7 + 0x10)
     598:	79 71 00 00 00 00 00 00	r1 = *(u64 *)(r7 + 0x0)
     599:	1f 81 00 00 00 00 00 00	r1 -= r8
     600:	3d 61 07 00 00 00 00 00	if r1 >= r6 goto +0x7 <.text+0x11e0>
     601:	bf 71 00 00 00 00 00 00	r1 = r7
     602:	bf 29 00 00 00 00 00 00	r9 = r2
     603:	bf 82 00 00 00 00 00 00	r2 = r8
     604:	bf 63 00 00 00 00 00 00	r3 = r6
     605:	85 10 00 00 9a 00 00 00	call 0x9a
     606:	bf 92 00 00 00 00 00 00	r2 = r9
     607:	79 78 10 00 00 00 00 00	r8 = *(u64 *)(r7 + 0x10)
     608:	79 71 08 00 00 00 00 00	r1 = *(u64 *)(r7 + 0x8)
     609:	0f 81 00 00 00 00 00 00	r1 += r8
     610:	bf 63 00 00 00 00 00 00	r3 = r6
     611:	85 10 00 00 22 3a 00 00	call 0x3a22
     612:	0f 68 00 00 00 00 00 00	r8 += r6
     613:	7b 87 10 00 00 00 00 00	*(u64 *)(r7 + 0x10) = r8
     614:	b7 00 00 00 00 00 00 00	r0 = 0x0
     615:	95 00 00 00 00 00 00 00	exit
     616:	79 45 08 00 00 00 00 00	r5 = *(u64 *)(r4 + 0x8)
     617:	15 05 2b 00 00 00 00 00	if r5 == 0x0 goto +0x2b <.text+0x1388>
     618:	79 45 10 00 00 00 00 00	r5 = *(u64 *)(r4 + 0x10)
     619:	55 05 03 00 00 00 00 00	if r5 != 0x0 goto +0x3 <.text+0x1258>
     620:	55 03 4d 00 00 00 00 00	if r3 != 0x0 goto +0x4d <.text+0x14b0>
     621:	bf 20 00 00 00 00 00 00	r0 = r2
     622:	05 00 42 00 00 00 00 00	goto +0x42 <.text+0x1468>
     623:	18 00 00 00 00 00 00 00 00 00 00 00 03 00 00 00	r0 = 0x300000000 ll
     625:	79 00 00 00 00 00 00 00	r0 = *(u64 *)(r0 + 0x0)
     626:	18 06 00 00 00 80 00 00 00 00 00 00 03 00 00 00	r6 = 0x300008000 ll
     628:	15 00 01 00 00 00 00 00	if r0 == 0x0 goto +0x1 <.text+0x1290>
     629:	bf 06 00 00 00 00 00 00	r6 = r0
     630:	bf 67 00 00 00 00 00 00	r7 = r6
     631:	1f 37 00 00 00 00 00 00	r7 -= r3
     632:	b7 00 00 00 00 00 00 00	r0 = 0x0
     633:	b7 08 00 00 01 00 00 00	r8 = 0x1
     634:	2d 67 01 00 00 00 00 00	if r7 > r6 goto +0x1 <.text+0x12c0>
     635:	b7 08 00 00 00 00 00 00	r8 = 0x0
     636:	b7 06 00 00 00 00 00 00	r6 = 0x0
     637:	55 08 01 00 00 00 00 00	if r8 != 0x0 goto +0x1 <.text+0x12d8>
     638:	bf 76 00 00 00 00 00 00	r6 = r7
     639:	bf 27 00 00 00 00 00 00	r7 = r2
     640:	87 07 00 00 00 00 00 00	r7 = -r7
     641:	5f 76 00 00 00 00 00 00	r6 &= r7
     642:	18 07 00 00 08 00 00 00 00 00 00 00 03 00 00 00	r7 = 0x300000008 ll
     644:	ad 76 2c 00 00 00 00 00	if r6 < r7 goto +0x2c <.text+0x1468>
     645:	79 44 00 00 00 00 00 00	r4 = *(u64 *)(r4 + 0x0)
     646:	18 00 00 00 00 00 00 00 00 00 00 00 03 00 00 00	r0 = 0x300000000 ll
     648:	7b 60 00 00 00 00 00 00	*(u64 *)(r0 + 0x0) = r6
     649:	bf 17 00 00 00 00 00 00	r7 = r1
     650:	bf 61 00 00 00 00 00 00	r1 = r6
     651:	bf 28 00 00 00 00 00 00	r8 = r2
     652:	bf 42 00 00 00 00 00 00	r2 = r4
     653:	bf 39 00 00 00 00 00 00	r9 = r3
     654:	bf 53 00 00 00 00 00 00	r3 = r5
     655:	85 10 00 00 f6 39 00 00	call 0x39f6
     656:	bf 93 00 00 00 00 00 00	r3 = r9
     657:	bf 82 00 00 00 00 00 00	r2 = r8
     658:	bf 71 00 00 00 00 00 00	r1 = r7
     659:	bf 60 00 00 00 00 00 00	r0 = r6
     660:	05 00 1c 00 00 00 00 00	goto +0x1c <.text+0x1468>
     661:	55 03 01 00 00 00 00 00	if r3 != 0x0 goto +0x1 <.text+0x1398>
     662:	05 00 d6 ff 00 00 00 00	goto -0x2a <.text+0x1248>
     663:	18 04 00 00 00 00 00 00 00 00 00 00 03 00 00 00	r4 = 0x300000000 ll
     665:	79 45 00 00 00 00 00 00	r5 = *(u64 *)(r4 + 0x0)
     666:	18 04 00 00 00 80 00 00 00 00 00 00 03 00 00 00	r4 = 0x300008000 ll
     668:	15 05 01 00 00 00 00 00	if r5 == 0x0 goto +0x1 <.text+0x13d0>
     669:	bf 54 00 00 00 00 00 00	r4 = r5
     670:	bf 45 00 00 00 00 00 00	r5 = r4
     671:	1f 35 00 00 00 00 00 00	r5 -= r3
     672:	b7 00 00 00 00 00 00 00	r0 = 0x0
     673:	b7 06 00 00 01 00 00 00	r6 = 0x1
     674:	2d 45 01 00 00 00 00 00	if r5 > r4 goto +0x1 <.text+0x1400>
     675:	b7 06 00 00 00 00 00 00	r6 = 0x0
     676:	b7 04 00 00 00 00 00 00	r4 = 0x0
     677:	55 06 01 00 00 00 00 00	if r6 != 0x0 goto +0x1 <.text+0x1418>
     678:	bf 54 00 00 00 00 00 00	r4 = r5
     679:	bf 25 00 00 00 00 00 00	r5 = r2
     680:	87 05 00 00 00 00 00 00	r5 = -r5
     681:	5f 54 00 00 00 00 00 00	r4 &= r5
     682:	18 05 00 00 08 00 00 00 00 00 00 00 03 00 00 00	r5 = 0x300000008 ll
     684:	ad 54 04 00 00 00 00 00	if r4 < r5 goto +0x4 <.text+0x1468>
     685:	18 05 00 00 00 00 00 00 00 00 00 00 03 00 00 00	r5 = 0x300000000 ll
     687:	7b 45 00 00 00 00 00 00	*(u64 *)(r5 + 0x0) = r4
     688:	bf 40 00 00 00 00 00 00	r0 = r4
     689:	7b 31 10 00 00 00 00 00	*(u64 *)(r1 + 0x10) = r3
     690:	b7 03 00 00 01 00 00 00	r3 = 0x1
     691:	15 00 01 00 00 00 00 00	if r0 == 0x0 goto +0x1 <.text+0x1488>
     692:	b7 03 00 00 00 00 00 00	r3 = 0x0
     693:	15 00 01 00 00 00 00 00	if r0 == 0x0 goto +0x1 <.text+0x1498>
     694:	bf 02 00 00 00 00 00 00	r2 = r0
     695:	7b 21 08 00 00 00 00 00	*(u64 *)(r1 + 0x8) = r2
     696:	7b 31 00 00 00 00 00 00	*(u64 *)(r1 + 0x0) = r3
     697:	95 00 00 00 00 00 00 00	exit
     698:	18 04 00 00 00 00 00 00 00 00 00 00 03 00 00 00	r4 = 0x300000000 ll
     700:	79 45 00 00 00 00 00 00	r5 = *(u64 *)(r4 + 0x0)
     701:	18 04 00 00 00 80 00 00 00 00 00 00 03 00 00 00	r4 = 0x300008000 ll
     703:	15 05 01 00 00 00 00 00	if r5 == 0x0 goto +0x1 <.text+0x14e8>
     704:	bf 54 00 00 00 00 00 00	r4 = r5
     705:	bf 45 00 00 00 00 00 00	r5 = r4
     706:	1f 35 00 00 00 00 00 00	r5 -= r3
     707:	b7 00 00 00 00 00 00 00	r0 = 0x0
     708:	b7 06 00 00 01 00 00 00	r6 = 0x1
     709:	2d 45 01 00 00 00 00 00	if r5 > r4 goto +0x1 <.text+0x1518>
     710:	b7 06 00 00 00 00 00 00	r6 = 0x0
     711:	b7 04 00 00 00 00 00 00	r4 = 0x0
     712:	55 06 01 00 00 00 00 00	if r6 != 0x0 goto +0x1 <.text+0x1530>
     713:	bf 54 00 00 00 00 00 00	r4 = r5
     714:	bf 25 00 00 00 00 00 00	r5 = r2
     715:	87 05 00 00 00 00 00 00	r5 = -r5
     716:	5f 54 00 00 00 00 00 00	r4 &= r5
     717:	18 05 00 00 08 00 00 00 00 00 00 00 03 00 00 00	r5 = 0x300000008 ll
     719:	ad 54 e1 ff 00 00 00 00	if r4 < r5 goto -0x1f <.text+0x1468>
     720:	05 00 dc ff 00 00 00 00	goto -0x24 <.text+0x1448>
     721:	b7 03 00 00 00 00 00 00	r3 = 0x0
     722:	79 14 00 00 00 00 00 00	r4 = *(u64 *)(r1 + 0x0)
     723:	15 04 1c 00 ff ff ff ff	if r4 == -0x1 goto +0x1c <.text+0x1660>
     724:	bf 42 00 00 00 00 00 00	r2 = r4
     725:	07 02 00 00 01 00 00 00	r2 += 0x1
     726:	bf 46 00 00 00 00 00 00	r6 = r4
     727:	67 06 00 00 01 00 00 00	r6 <<= 0x1
     728:	2d 26 01 00 00 00 00 00	if r6 > r2 goto +0x1 <.text+0x15b0>
     729:	bf 26 00 00 00 00 00 00	r6 = r2
     730:	25 06 01 00 08 00 00 00	if r6 > 0x8 goto +0x1 <.text+0x15c0>
     731:	b7 06 00 00 08 00 00 00	r6 = 0x8
     732:	c5 06 13 00 00 00 00 00	if r6 s< 0x0 goto +0x13 <.text+0x1660>
     733:	b7 02 00 00 00 00 00 00	r2 = 0x0
     734:	15 04 04 00 00 00 00 00	if r4 == 0x0 goto +0x4 <.text+0x15f8>
     735:	79 12 08 00 00 00 00 00	r2 = *(u64 *)(r1 + 0x8)
     736:	7b 4a f8 ff 00 00 00 00	*(u64 *)(r10 - 0x8) = r4
     737:	7b 2a e8 ff 00 00 00 00	*(u64 *)(r10 - 0x18) = r2
     738:	b7 02 00 00 01 00 00 00	r2 = 0x1
     739:	bf 17 00 00 00 00 00 00	r7 = r1
     740:	7b 2a f0 ff 00 00 00 00	*(u64 *)(r10 - 0x10) = r2
     741:	bf a1 00 00 00 00 00 00	r1 = r10
     742:	07 01 00 00 d0 ff ff ff	r1 += -0x30
     743:	bf a4 00 00 00 00 00 00	r4 = r10
     744:	07 04 00 00 e8 ff ff ff	r4 += -0x18
     745:	b7 02 00 00 01 00 00 00	r2 = 0x1
     746:	bf 63 00 00 00 00 00 00	r3 = r6
     747:	85 10 00 00 7c ff ff ff	call -0x84
     748:	79 a1 d0 ff 00 00 00 00	r1 = *(u64 *)(r10 - 0x30)
     749:	55 01 06 00 01 00 00 00	if r1 != 0x1 goto +0x6 <.text+0x1680>
     750:	79 a2 e0 ff 00 00 00 00	r2 = *(u64 *)(r10 - 0x20)
     751:	79 a3 d8 ff 00 00 00 00	r3 = *(u64 *)(r10 - 0x28)
     752:	bf 31 00 00 00 00 00 00	r1 = r3
     753:	18 03 00 00 d8 3e 02 00 00 00 00 00 00 00 00 00	r3 = 0x23ed8 ll
     755:	85 10 00 00 e2 2b 00 00	call 0x2be2
     756:	79 a1 d8 ff 00 00 00 00	r1 = *(u64 *)(r10 - 0x28)
     757:	7b 67 00 00 00 00 00 00	*(u64 *)(r7 + 0x0) = r6
     758:	7b 17 08 00 00 00 00 00	*(u64 *)(r7 + 0x8) = r1
     759:	95 00 00 00 00 00 00 00	exit
     760:	bf 25 00 00 00 00 00 00	r5 = r2
     761:	0f 35 00 00 00 00 00 00	r5 += r3
     762:	b7 04 00 00 00 00 00 00	r4 = 0x0
     763:	b7 00 00 00 01 00 00 00	r0 = 0x1
     764:	ad 25 01 00 00 00 00 00	if r5 < r2 goto +0x1 <.text+0x16d0>
     765:	b7 00 00 00 00 00 00 00	r0 = 0x0
     766:	57 00 00 00 01 00 00 00	r0 &= 0x1
     767:	55 00 1c 00 00 00 00 00	if r0 != 0x0 goto +0x1c <.text+0x17c0>
     768:	0f 23 00 00 00 00 00 00	r3 += r2
     769:	79 12 00 00 00 00 00 00	r2 = *(u64 *)(r1 + 0x0)
     770:	bf 26 00 00 00 00 00 00	r6 = r2
     771:	67 06 00 00 01 00 00 00	r6 <<= 0x1
     772:	2d 36 01 00 00 00 00 00	if r6 > r3 goto +0x1 <.text+0x1710>
     773:	bf 36 00 00 00 00 00 00	r6 = r3
     774:	25 06 01 00 08 00 00 00	if r6 > 0x8 goto +0x1 <.text+0x1720>
     775:	b7 06 00 00 08 00 00 00	r6 = 0x8
     776:	c5 06 13 00 00 00 00 00	if r6 s< 0x0 goto +0x13 <.text+0x17c0>
     777:	b7 03 00 00 00 00 00 00	r3 = 0x0
     778:	15 02 04 00 00 00 00 00	if r2 == 0x0 goto +0x4 <.text+0x1758>
     779:	79 13 08 00 00 00 00 00	r3 = *(u64 *)(r1 + 0x8)
     780:	7b 2a f8 ff 00 00 00 00	*(u64 *)(r10 - 0x8) = r2
     781:	7b 3a e8 ff 00 00 00 00	*(u64 *)(r10 - 0x18) = r3
     782:	b7 03 00 00 01 00 00 00	r3 = 0x1
     783:	bf 17 00 00 00 00 00 00	r7 = r1
     784:	7b 3a f0 ff 00 00 00 00	*(u64 *)(r10 - 0x10) = r3
     785:	bf a1 00 00 00 00 00 00	r1 = r10
     786:	07 01 00 00 d0 ff ff ff	r1 += -0x30
     787:	bf a4 00 00 00 00 00 00	r4 = r10
     788:	07 04 00 00 e8 ff ff ff	r4 += -0x18
     789:	b7 02 00 00 01 00 00 00	r2 = 0x1
     790:	bf 63 00 00 00 00 00 00	r3 = r6
     791:	85 10 00 00 50 ff ff ff	call -0xb0
     792:	79 a1 d0 ff 00 00 00 00	r1 = *(u64 *)(r10 - 0x30)
     793:	55 01 07 00 01 00 00 00	if r1 != 0x1 goto +0x7 <.text+0x17e8>
     794:	79 a5 e0 ff 00 00 00 00	r5 = *(u64 *)(r10 - 0x20)
     795:	79 a4 d8 ff 00 00 00 00	r4 = *(u64 *)(r10 - 0x28)
     796:	bf 41 00 00 00 00 00 00	r1 = r4
     797:	bf 52 00 00 00 00 00 00	r2 = r5
     798:	18 03 00 00 f0 3e 02 00 00 00 00 00 00 00 00 00	r3 = 0x23ef0 ll
     800:	85 10 00 00 b5 2b 00 00	call 0x2bb5
     801:	79 a1 d8 ff 00 00 00 00	r1 = *(u64 *)(r10 - 0x28)
     802:	7b 67 00 00 00 00 00 00	*(u64 *)(r7 + 0x0) = r6
     803:	7b 17 08 00 00 00 00 00	*(u64 *)(r7 + 0x8) = r1
     804:	95 00 00 00 00 00 00 00	exit
     805:	79 13 00 00 00 00 00 00	r3 = *(u64 *)(r1 + 0x0)
     806:	07 01 00 00 08 00 00 00	r1 += 0x8
     807:	55 03 0a 00 00 00 00 00	if r3 != 0x0 goto +0xa <.text+0x1870>
     808:	7b 1a f8 ff 00 00 00 00	*(u64 *)(r10 - 0x8) = r1
     809:	bf a4 00 00 00 00 00 00	r4 = r10
     810:	07 04 00 00 f8 ff ff ff	r4 += -0x8
     811:	bf 21 00 00 00 00 00 00	r1 = r2
     812:	18 02 00 00 69 0d 02 00 00 00 00 00 00 00 00 00	r2 = 0x20d69 ll
     814:	b7 03 00 00 0b 00 00 00	r3 = 0xb
     815:	18 05 00 00 08 3f 02 00 00 00 00 00 00 00 00 00	r5 = 0x23f08 ll
     817:	05 00 09 00 00 00 00 00	goto +0x9 <.text+0x18b8>
     818:	7b 1a f8 ff 00 00 00 00	*(u64 *)(r10 - 0x8) = r1
     819:	bf a4 00 00 00 00 00 00	r4 = r10
     820:	07 04 00 00 f8 ff ff ff	r4 += -0x8
     821:	bf 21 00 00 00 00 00 00	r1 = r2
     822:	18 02 00 00 74 0d 02 00 00 00 00 00 00 00 00 00	r2 = 0x20d74 ll
     824:	b7 03 00 00 0c 00 00 00	r3 = 0xc
     825:	18 05 00 00 28 3f 02 00 00 00 00 00 00 00 00 00	r5 = 0x23f28 ll
     827:	85 10 00 00 30 32 00 00	call 0x3230
     828:	95 00 00 00 00 00 00 00	exit
     829:	79 13 00 00 00 00 00 00	r3 = *(u64 *)(r1 + 0x0)
     830:	55 03 06 00 02 00 00 00	if r3 != 0x2 goto +0x6 <.text+0x1908>
     831:	bf 21 00 00 00 00 00 00	r1 = r2
     832:	18 02 00 00 aa 0d 02 00 00 00 00 00 00 00 00 00	r2 = 0x20daa ll
     834:	b7 03 00 00 04 00 00 00	r3 = 0x4
     835:	85 10 00 00 a8 31 00 00	call 0x31a8
     836:	05 00 0a 00 00 00 00 00	goto +0xa <.text+0x1958>
     837:	7b 1a f8 ff 00 00 00 00	*(u64 *)(r10 - 0x8) = r1
     838:	bf a4 00 00 00 00 00 00	r4 = r10
     839:	07 04 00 00 f8 ff ff ff	r4 += -0x8
     840:	bf 21 00 00 00 00 00 00	r1 = r2
     841:	18 02 00 00 9e 0d 02 00 00 00 00 00 00 00 00 00	r2 = 0x20d9e ll
     843:	b7 03 00 00 04 00 00 00	r3 = 0x4
     844:	18 05 00 00 88 3f 02 00 00 00 00 00 00 00 00 00	r5 = 0x23f88 ll
     846:	85 10 00 00 1d 32 00 00	call 0x321d
     847:	95 00 00 00 00 00 00 00	exit
     848:	79 13 00 00 00 00 00 00	r3 = *(u64 *)(r1 + 0x0)
     849:	18 04 00 00 00 00 00 00 00 00 00 00 00 00 00 80	r4 = -0x8000000000000000 ll
     851:	af 43 00 00 00 00 00 00	r3 ^= r4
     852:	a5 03 01 00 1a 00 00 00	if r3 < 0x1a goto +0x1 <.text+0x1990>
     853:	b7 03 00 00 0e 00 00 00	r3 = 0xe
     854:	65 03 09 00 0c 00 00 00	if r3 s> 0xc goto +0x9 <.text+0x19e0>
     855:	65 03 11 00 05 00 00 00	if r3 s> 0x5 goto +0x11 <.text+0x1a28>
     856:	65 03 2e 00 02 00 00 00	if r3 s> 0x2 goto +0x2e <.text+0x1b18>
     857:	15 03 51 00 00 00 00 00	if r3 == 0x0 goto +0x51 <.text+0x1c38>
     858:	15 03 88 00 01 00 00 00	if r3 == 0x1 goto +0x88 <.text+0x1df8>
     859:	bf 21 00 00 00 00 00 00	r1 = r2
     860:	18 02 00 00 1e 0e 02 00 00 00 00 00 00 00 00 00	r2 = 0x20e1e ll
     862:	b7 03 00 00 16 00 00 00	r3 = 0x16
     863:	05 00 9c 00 00 00 00 00	goto +0x9c <.text+0x1ec0>
     864:	65 03 10 00 12 00 00 00	if r3 s> 0x12 goto +0x10 <.text+0x1a68>
     865:	65 03 2c 00 0f 00 00 00	if r3 s> 0xf goto +0x2c <.text+0x1b50>
     866:	15 03 54 00 0d 00 00 00	if r3 == 0xd goto +0x54 <.text+0x1c98>
     867:	15 03 84 00 0e 00 00 00	if r3 == 0xe goto +0x84 <.text+0x1e20>
     868:	bf 21 00 00 00 00 00 00	r1 = r2
     869:	18 02 00 00 15 0f 02 00 00 00 00 00 00 00 00 00	r2 = 0x20f15 ll
     871:	b7 03 00 00 14 00 00 00	r3 = 0x14
     872:	05 00 93 00 00 00 00 00	goto +0x93 <.text+0x1ec0>
     873:	65 03 0f 00 08 00 00 00	if r3 s> 0x8 goto +0xf <.text+0x1aa8>
     874:	15 03 36 00 06 00 00 00	if r3 == 0x6 goto +0x36 <.text+0x1be8>
     875:	15 03 59 00 07 00 00 00	if r3 == 0x7 goto +0x59 <.text+0x1d08>
     876:	bf 21 00 00 00 00 00 00	r1 = r2
     877:	18 02 00 00 94 0e 02 00 00 00 00 00 00 00 00 00	r2 = 0x20e94 ll
     879:	b7 03 00 00 19 00 00 00	r3 = 0x19
     880:	05 00 8b 00 00 00 00 00	goto +0x8b <.text+0x1ec0>
     881:	65 03 0e 00 15 00 00 00	if r3 s> 0x15 goto +0xe <.text+0x1ae0>
     882:	15 03 33 00 13 00 00 00	if r3 == 0x13 goto +0x33 <.text+0x1c10>
     883:	15 03 56 00 14 00 00 00	if r3 == 0x14 goto +0x56 <.text+0x1d30>
     884:	bf 21 00 00 00 00 00 00	r1 = r2
     885:	18 02 00 00 97 0f 02 00 00 00 00 00 00 00 00 00	r2 = 0x20f97 ll
     887:	b7 03 00 00 26 00 00 00	r3 = 0x26
     888:	05 00 83 00 00 00 00 00	goto +0x83 <.text+0x1ec0>
     889:	65 03 1b 00 0a 00 00 00	if r3 s> 0xa goto +0x1b <.text+0x1b88>
     890:	15 03 54 00 09 00 00 00	if r3 == 0x9 goto +0x54 <.text+0x1d58>
     891:	bf 21 00 00 00 00 00 00	r1 = r2
     892:	18 02 00 00 c1 0e 02 00 00 00 00 00 00 00 00 00	r2 = 0x20ec1 ll
     894:	b7 03 00 00 14 00 00 00	r3 = 0x14
     895:	05 00 7c 00 00 00 00 00	goto +0x7c <.text+0x1ec0>
     896:	65 03 1a 00 17 00 00 00	if r3 s> 0x17 goto +0x1a <.text+0x1bb8>
     897:	15 03 52 00 16 00 00 00	if r3 == 0x16 goto +0x52 <.text+0x1d80>
     898:	bf 21 00 00 00 00 00 00	r1 = r2
     899:	18 02 00 00 d0 0f 02 00 00 00 00 00 00 00 00 00	r2 = 0x20fd0 ll
     901:	b7 03 00 00 12 00 00 00	r3 = 0x12
     902:	05 00 75 00 00 00 00 00	goto +0x75 <.text+0x1ec0>
     903:	15 03 33 00 03 00 00 00	if r3 == 0x3 goto +0x33 <.text+0x1cb8>
     904:	15 03 6a 00 04 00 00 00	if r3 == 0x4 goto +0x6a <.text+0x1e78>
     905:	bf 21 00 00 00 00 00 00	r1 = r2
     906:	18 02 00 00 59 0e 02 00 00 00 00 00 00 00 00 00	r2 = 0x20e59 ll
     908:	b7 03 00 00 11 00 00 00	r3 = 0x11
     909:	05 00 6e 00 00 00 00 00	goto +0x6e <.text+0x1ec0>
     910:	15 03 31 00 10 00 00 00	if r3 == 0x10 goto +0x31 <.text+0x1ce0>
     911:	15 03 68 00 11 00 00 00	if r3 == 0x11 goto +0x68 <.text+0x1ea0>
     912:	bf 21 00 00 00 00 00 00	r1 = r2
     913:	18 02 00 00 46 0f 02 00 00 00 00 00 00 00 00 00	r2 = 0x20f46 ll
     915:	b7 03 00 00 22 00 00 00	r3 = 0x22
     916:	05 00 67 00 00 00 00 00	goto +0x67 <.text+0x1ec0>
     917:	15 03 43 00 0b 00 00 00	if r3 == 0xb goto +0x43 <.text+0x1da8>
     918:	bf 21 00 00 00 00 00 00	r1 = r2
     919:	18 02 00 00 e8 0e 02 00 00 00 00 00 00 00 00 00	r2 = 0x20ee8 ll
     921:	b7 03 00 00 15 00 00 00	r3 = 0x15
     922:	05 00 61 00 00 00 00 00	goto +0x61 <.text+0x1ec0>
     923:	15 03 42 00 18 00 00 00	if r3 == 0x18 goto +0x42 <.text+0x1dd0>
     924:	bf 21 00 00 00 00 00 00	r1 = r2
     925:	18 02 00 00 eb 0f 02 00 00 00 00 00 00 00 00 00	r2 = 0x20feb ll
     927:	b7 03 00 00 12 00 00 00	r3 = 0x12
     928:	05 00 5b 00 00 00 00 00	goto +0x5b <.text+0x1ec0>
     929:	bf 21 00 00 00 00 00 00	r1 = r2
     930:	18 02 00 00 6a 0e 02 00 00 00 00 00 00 00 00 00	r2 = 0x20e6a ll
     932:	b7 03 00 00 12 00 00 00	r3 = 0x12
     933:	05 00 56 00 00 00 00 00	goto +0x56 <.text+0x1ec0>
     934:	bf 21 00 00 00 00 00 00	r1 = r2
     935:	18 02 00 00 68 0f 02 00 00 00 00 00 00 00 00 00	r2 = 0x20f68 ll
     937:	b7 03 00 00 0e 00 00 00	r3 = 0xe
     938:	05 00 51 00 00 00 00 00	goto +0x51 <.text+0x1ec0>
     939:	07 01 00 00 08 00 00 00	r1 += 0x8
     940:	7b 1a f8 ff 00 00 00 00	*(u64 *)(r10 - 0x8) = r1
     941:	bf a4 00 00 00 00 00 00	r4 = r10
     942:	07 04 00 00 f8 ff ff ff	r4 += -0x8
     943:	bf 21 00 00 00 00 00 00	r1 = r2
     944:	18 02 00 00 09 0e 02 00 00 00 00 00 00 00 00 00	r2 = 0x20e09 ll
     946:	b7 03 00 00 06 00 00 00	r3 = 0x6
     947:	18 05 00 00 68 3f 02 00 00 00 00 00 00 00 00 00	r5 = 0x23f68 ll
     949:	85 10 00 00 b6 31 00 00	call 0x31b6
     950:	05 00 46 00 00 00 00 00	goto +0x46 <.text+0x1ec8>
     951:	bf 21 00 00 00 00 00 00	r1 = r2
     952:	18 02 00 00 fd 0e 02 00 00 00 00 00 00 00 00 00	r2 = 0x20efd ll
     954:	05 00 40 00 00 00 00 00	goto +0x40 <.text+0x1eb8>
     955:	bf 21 00 00 00 00 00 00	r1 = r2
     956:	18 02 00 00 34 0e 02 00 00 00 00 00 00 00 00 00	r2 = 0x20e34 ll
     958:	b7 03 00 00 12 00 00 00	r3 = 0x12
     959:	05 00 3c 00 00 00 00 00	goto +0x3c <.text+0x1ec0>
     960:	bf 21 00 00 00 00 00 00	r1 = r2
     961:	18 02 00 00 29 0f 02 00 00 00 00 00 00 00 00 00	r2 = 0x20f29 ll
     963:	b7 03 00 00 11 00 00 00	r3 = 0x11
     964:	05 00 37 00 00 00 00 00	goto +0x37 <.text+0x1ec0>
     965:	bf 21 00 00 00 00 00 00	r1 = r2
     966:	18 02 00 00 7c 0e 02 00 00 00 00 00 00 00 00 00	r2 = 0x20e7c ll
     968:	b7 03 00 00 18 00 00 00	r3 = 0x18
     969:	05 00 32 00 00 00 00 00	goto +0x32 <.text+0x1ec0>
     970:	bf 21 00 00 00 00 00 00	r1 = r2
     971:	18 02 00 00 76 0f 02 00 00 00 00 00 00 00 00 00	r2 = 0x20f76 ll
     973:	b7 03 00 00 21 00 00 00	r3 = 0x21
     974:	05 00 2d 00 00 00 00 00	goto +0x2d <.text+0x1ec0>
     975:	bf 21 00 00 00 00 00 00	r1 = r2
     976:	18 02 00 00 ad 0e 02 00 00 00 00 00 00 00 00 00	r2 = 0x20ead ll
     978:	b7 03 00 00 14 00 00 00	r3 = 0x14
     979:	05 00 28 00 00 00 00 00	goto +0x28 <.text+0x1ec0>
     980:	bf 21 00 00 00 00 00 00	r1 = r2
     981:	18 02 00 00 bd 0f 02 00 00 00 00 00 00 00 00 00	r2 = 0x20fbd ll
     983:	b7 03 00 00 13 00 00 00	r3 = 0x13
     984:	05 00 23 00 00 00 00 00	goto +0x23 <.text+0x1ec0>
     985:	bf 21 00 00 00 00 00 00	r1 = r2
     986:	18 02 00 00 d5 0e 02 00 00 00 00 00 00 00 00 00	r2 = 0x20ed5 ll
     988:	b7 03 00 00 13 00 00 00	r3 = 0x13
     989:	05 00 1e 00 00 00 00 00	goto +0x1e <.text+0x1ec0>
     990:	bf 21 00 00 00 00 00 00	r1 = r2
     991:	18 02 00 00 e2 0f 02 00 00 00 00 00 00 00 00 00	r2 = 0x20fe2 ll
     993:	b7 03 00 00 09 00 00 00	r3 = 0x9
     994:	05 00 19 00 00 00 00 00	goto +0x19 <.text+0x1ec0>
     995:	bf 21 00 00 00 00 00 00	r1 = r2
     996:	18 02 00 00 0f 0e 02 00 00 00 00 00 00 00 00 00	r2 = 0x20e0f ll
     998:	b7 03 00 00 0f 00 00 00	r3 = 0xf
     999:	05 00 14 00 00 00 00 00	goto +0x14 <.text+0x1ec0>
    1000:	7b 1a f8 ff 00 00 00 00	*(u64 *)(r10 - 0x8) = r1
    1001:	bf a4 00 00 00 00 00 00	r4 = r10
    1002:	07 04 00 00 f8 ff ff ff	r4 += -0x8
    1003:	bf 21 00 00 00 00 00 00	r1 = r2
    1004:	18 02 00 00 09 0f 02 00 00 00 00 00 00 00 00 00	r2 = 0x20f09 ll
    1006:	b7 03 00 00 0c 00 00 00	r3 = 0xc
    1007:	18 05 00 00 20 3e 02 00 00 00 00 00 00 00 00 00	r5 = 0x23e20 ll
    1009:	85 10 00 00 7a 31 00 00	call 0x317a
    1010:	05 00 0a 00 00 00 00 00	goto +0xa <.text+0x1ec8>
    1011:	bf 21 00 00 00 00 00 00	r1 = r2
    1012:	18 02 00 00 46 0e 02 00 00 00 00 00 00 00 00 00	r2 = 0x20e46 ll
    1014:	b7 03 00 00 13 00 00 00	r3 = 0x13
    1015:	05 00 04 00 00 00 00 00	goto +0x4 <.text+0x1ec0>
    1016:	bf 21 00 00 00 00 00 00	r1 = r2
    1017:	18 02 00 00 3a 0f 02 00 00 00 00 00 00 00 00 00	r2 = 0x20f3a ll
    1019:	b7 03 00 00 0c 00 00 00	r3 = 0xc
    1020:	85 10 00 00 ef 30 00 00	call 0x30ef
    1021:	95 00 00 00 00 00 00 00	exit
    1022:	bf 47 00 00 00 00 00 00	r7 = r4
    1023:	bf 28 00 00 00 00 00 00	r8 = r2
    1024:	79 19 00 00 00 00 00 00	r9 = *(u64 *)(r1 + 0x0)
    1025:	bf 96 00 00 00 00 00 00	r6 = r9
    1026:	07 06 00 00 28 00 00 00	r6 += 0x28
    1027:	bf 61 00 00 00 00 00 00	r1 = r6
    1028:	18 02 00 00 80 0a 02 00 00 00 00 00 00 00 00 00	r2 = 0x20a80 ll
    1030:	b7 03 00 00 20 00 00 00	r3 = 0x20
    1031:	85 10 00 00 87 38 00 00	call 0x3887
    1032:	67 00 00 00 20 00 00 00	r0 <<= 0x20
    1033:	77 00 00 00 20 00 00 00	r0 >>= 0x20
    1034:	15 00 01 00 00 00 00 00	if r0 == 0x0 goto +0x1 <.text+0x1f40>
    1035:	07 07 00 00 88 ab 0d 00	r7 += 0xdab88
    1036:	79 83 00 00 00 00 00 00	r3 = *(u64 *)(r8 + 0x0)
    1037:	79 31 48 00 00 00 00 00	r1 = *(u64 *)(r3 + 0x48)
    1038:	ad 17 01 00 00 00 00 00	if r7 < r1 goto +0x1 <.text+0x1f60>
    1039:	bf 17 00 00 00 00 00 00	r7 = r1
    1040:	bf 91 00 00 00 00 00 00	r1 = r9
    1041:	07 01 00 00 08 00 00 00	r1 += 0x8
    1042:	7b 1a 48 ff 00 00 00 00	*(u64 *)(r10 - 0xb8) = r1
    1043:	bf 35 00 00 00 00 00 00	r5 = r3
    1044:	07 05 00 00 08 00 00 00	r5 += 0x8
    1045:	7b 5a 38 ff 00 00 00 00	*(u64 *)(r10 - 0xc8) = r5
    1046:	6a 0a 50 ff 01 00 00 00	*(u16 *)(r10 - 0xb0) = 0x1
    1047:	6a 0a 40 ff 01 01 00 00	*(u16 *)(r10 - 0xc0) = 0x101
    1048:	7b 7a 60 ff 00 00 00 00	*(u64 *)(r10 - 0xa0) = r7
    1049:	72 0a 5f ff 00 00 00 00	*(u8 *)(r10 - 0xa1) = 0x0
    1050:	6a 0a 5d ff 00 00 00 00	*(u16 *)(r10 - 0xa3) = 0x0
    1051:	72 0a 5c ff 02 00 00 00	*(u8 *)(r10 - 0xa4) = 0x2
    1052:	71 34 00 00 00 00 00 00	r4 = *(u8 *)(r3 + 0x0)
    1053:	55 04 4d 00 ff 00 00 00	if r4 != 0xff goto +0x4d <.text+0x2238>
    1054:	71 30 01 00 00 00 00 00	r0 = *(u8 *)(r3 + 0x1)
    1055:	b7 04 00 00 01 00 00 00	r4 = 0x1
    1056:	b7 02 00 00 01 00 00 00	r2 = 0x1
    1057:	55 00 01 00 00 00 00 00	if r0 != 0x0 goto +0x1 <.text+0x1ff8>
    1058:	b7 02 00 00 00 00 00 00	r2 = 0x0
    1059:	71 37 02 00 00 00 00 00	r7 = *(u8 *)(r3 + 0x2)
    1060:	b7 00 00 00 01 00 00 00	r0 = 0x1
    1061:	55 07 01 00 00 00 00 00	if r7 != 0x0 goto +0x1 <.text+0x2018>
    1062:	b7 00 00 00 00 00 00 00	r0 = 0x0
    1063:	7b 2a 30 ff 00 00 00 00	*(u64 *)(r10 - 0xd0) = r2
    1064:	bf 37 00 00 00 00 00 00	r7 = r3
    1065:	07 07 00 00 48 00 00 00	r7 += 0x48
    1066:	71 38 03 00 00 00 00 00	r8 = *(u8 *)(r3 + 0x3)
    1067:	55 08 01 00 00 00 00 00	if r8 != 0x0 goto +0x1 <.text+0x2048>
    1068:	b7 04 00 00 00 00 00 00	r4 = 0x0
    1069:	79 38 50 00 00 00 00 00	r8 = *(u64 *)(r3 + 0x50)
    1070:	bf 32 00 00 00 00 00 00	r2 = r3
    1071:	07 02 00 00 28 00 00 00	r2 += 0x28
    1072:	7b 2a 88 ff 00 00 00 00	*(u64 *)(r10 - 0x78) = r2
    1073:	07 03 00 00 58 00 00 00	r3 += 0x58
    1074:	7b 3a 80 ff 00 00 00 00	*(u64 *)(r10 - 0x80) = r3
    1075:	7b 8a 78 ff 00 00 00 00	*(u64 *)(r10 - 0x88) = r8
    1076:	7b 7a 70 ff 00 00 00 00	*(u64 *)(r10 - 0x90) = r7
    1077:	7b 5a 68 ff 00 00 00 00	*(u64 *)(r10 - 0x98) = r5
    1078:	73 4a 9a ff 00 00 00 00	*(u8 *)(r10 - 0x66) = r4
    1079:	73 0a 99 ff 00 00 00 00	*(u8 *)(r10 - 0x67) = r0
    1080:	79 a2 30 ff 00 00 00 00	r2 = *(u64 *)(r10 - 0xd0)
    1081:	73 2a 98 ff 00 00 00 00	*(u8 *)(r10 - 0x68) = r2
    1082:	7a 0a 90 ff 00 00 00 00	*(u64 *)(r10 - 0x70) = 0x0
    1083:	71 92 00 00 00 00 00 00	r2 = *(u8 *)(r9 + 0x0)
    1084:	55 02 2e 00 ff 00 00 00	if r2 != 0xff goto +0x2e <.text+0x2238>
    1085:	71 92 01 00 00 00 00 00	r2 = *(u8 *)(r9 + 0x1)
    1086:	71 93 02 00 00 00 00 00	r3 = *(u8 *)(r9 + 0x2)
    1087:	71 95 03 00 00 00 00 00	r5 = *(u8 *)(r9 + 0x3)
    1088:	79 94 50 00 00 00 00 00	r4 = *(u64 *)(r9 + 0x50)
    1089:	7b 6a c0 ff 00 00 00 00	*(u64 *)(r10 - 0x40) = r6
    1090:	bf 90 00 00 00 00 00 00	r0 = r9
    1091:	07 00 00 00 58 00 00 00	r0 += 0x58
    1092:	7b 0a b8 ff 00 00 00 00	*(u64 *)(r10 - 0x48) = r0
    1093:	7b 4a b0 ff 00 00 00 00	*(u64 *)(r10 - 0x50) = r4
    1094:	07 09 00 00 48 00 00 00	r9 += 0x48
    1095:	7b 9a a8 ff 00 00 00 00	*(u64 *)(r10 - 0x58) = r9
    1096:	7b 1a a0 ff 00 00 00 00	*(u64 *)(r10 - 0x60) = r1
    1097:	b7 01 00 00 01 00 00 00	r1 = 0x1
    1098:	b7 04 00 00 01 00 00 00	r4 = 0x1
    1099:	55 05 01 00 00 00 00 00	if r5 != 0x0 goto +0x1 <.text+0x2148>
    1100:	b7 04 00 00 00 00 00 00	r4 = 0x0
    1101:	73 4a d2 ff 00 00 00 00	*(u8 *)(r10 - 0x2e) = r4
    1102:	b7 04 00 00 01 00 00 00	r4 = 0x1
    1103:	55 03 01 00 00 00 00 00	if r3 != 0x0 goto +0x1 <.text+0x2168>
    1104:	b7 04 00 00 00 00 00 00	r4 = 0x0
    1105:	73 4a d1 ff 00 00 00 00	*(u8 *)(r10 - 0x2f) = r4
    1106:	55 02 01 00 00 00 00 00	if r2 != 0x0 goto +0x1 <.text+0x2180>
    1107:	b7 01 00 00 00 00 00 00	r1 = 0x0
    1108:	73 1a d0 ff 00 00 00 00	*(u8 *)(r10 - 0x30) = r1
    1109:	7a 0a c8 ff 00 00 00 00	*(u64 *)(r10 - 0x38) = 0x0
    1110:	bf a1 00 00 00 00 00 00	r1 = r10
    1111:	07 01 00 00 5c ff ff ff	r1 += -0xa4
    1112:	7b 1a f0 ff 00 00 00 00	*(u64 *)(r10 - 0x10) = r1
    1113:	bf a1 00 00 00 00 00 00	r1 = r10
    1114:	07 01 00 00 38 ff ff ff	r1 += -0xc8
    1115:	7b 1a e0 ff 00 00 00 00	*(u64 *)(r10 - 0x20) = r1
    1116:	18 01 00 00 40 0a 02 00 00 00 00 00 00 00 00 00	r1 = 0x20a40 ll
    1118:	7b 1a d8 ff 00 00 00 00	*(u64 *)(r10 - 0x28) = r1
    1119:	7a 0a f8 ff 0c 00 00 00	*(u64 *)(r10 - 0x8) = 0xc
    1120:	7a 0a e8 ff 02 00 00 00	*(u64 *)(r10 - 0x18) = 0x2
    1121:	bf a1 00 00 00 00 00 00	r1 = r10
    1122:	07 01 00 00 d8 ff ff ff	r1 += -0x28
    1123:	bf a2 00 00 00 00 00 00	r2 = r10
    1124:	07 02 00 00 68 ff ff ff	r2 += -0x98
    1125:	b7 03 00 00 02 00 00 00	r3 = 0x2
    1126:	b7 04 00 00 08 00 00 00	r4 = 0x8
    1127:	b7 05 00 00 00 00 00 00	r5 = 0x0
    1128:	85 10 00 00 ff ff ff ff	call -0x1
    1129:	b7 00 00 00 1a 00 00 00	r0 = 0x1a
    1130:	05 00 01 00 00 00 00 00	goto +0x1 <.text+0x2240>
    1131:	b7 00 00 00 0b 00 00 00	r0 = 0xb
    1132:	95 00 00 00 00 00 00 00	exit
    1133:	bf 57 00 00 00 00 00 00	r7 = r5
    1134:	bf 48 00 00 00 00 00 00	r8 = r4
    1135:	bf 16 00 00 00 00 00 00	r6 = r1
    1136:	79 71 28 f0 00 00 00 00	r1 = *(u64 *)(r7 - 0xfd8)
    1137:	7b 1a d8 ff 00 00 00 00	*(u64 *)(r10 - 0x28) = r1
    1138:	79 71 20 f0 00 00 00 00	r1 = *(u64 *)(r7 - 0xfe0)
    1139:	7b 1a d0 ff 00 00 00 00	*(u64 *)(r10 - 0x30) = r1
    1140:	79 71 38 f0 00 00 00 00	r1 = *(u64 *)(r7 - 0xfc8)
    1141:	7b 1a 08 f0 00 00 00 00	*(u64 *)(r10 - 0xff8) = r1
    1142:	79 71 30 f0 00 00 00 00	r1 = *(u64 *)(r7 - 0xfd0)
    1143:	7b 1a 00 f0 00 00 00 00	*(u64 *)(r10 - 0x1000) = r1
    1144:	bf a1 00 00 00 00 00 00	r1 = r10
    1145:	07 01 00 00 e0 ff ff ff	r1 += -0x20
    1146:	bf a4 00 00 00 00 00 00	r4 = r10
    1147:	07 04 00 00 d0 ff ff ff	r4 += -0x30
    1148:	bf a5 00 00 00 00 00 00	r5 = r10
    1149:	85 10 00 00 5a 00 00 00	call 0x5a
    1150:	79 a3 e8 ff 00 00 00 00	r3 = *(u64 *)(r10 - 0x18)
    1151:	15 03 23 00 00 00 00 00	if r3 == 0x0 goto +0x23 <.text+0x23f8>
    1152:	79 31 08 00 00 00 00 00	r1 = *(u64 *)(r3 + 0x8)
    1153:	79 12 50 00 00 00 00 00	r2 = *(u64 *)(r1 + 0x50)
    1154:	25 02 04 00 1f 00 00 00	if r2 > 0x1f goto +0x4 <.text+0x2318>
    1155:	b7 01 00 00 20 00 00 00	r1 = 0x20
    1156:	18 03 00 00 f8 41 02 00 00 00 00 00 00 00 00 00	r3 = 0x241f8 ll
    1158:	85 10 00 00 cc 32 00 00	call 0x32cc
    1159:	7b 8a 80 ff 00 00 00 00	*(u64 *)(r10 - 0x80) = r8
    1160:	7b 3a a0 ff 00 00 00 00	*(u64 *)(r10 - 0x60) = r3
    1161:	79 72 18 f0 00 00 00 00	r2 = *(u64 *)(r7 - 0xfe8)
    1162:	7b 2a 88 ff 00 00 00 00	*(u64 *)(r10 - 0x78) = r2
    1163:	79 72 10 f0 00 00 00 00	r2 = *(u64 *)(r7 - 0xff0)
    1164:	7b 2a a8 ff 00 00 00 00	*(u64 *)(r10 - 0x58) = r2
    1165:	79 78 08 f0 00 00 00 00	r8 = *(u64 *)(r7 - 0xff8)
    1166:	79 79 00 f0 00 00 00 00	r9 = *(u64 *)(r7 - 0x1000)
    1167:	79 a2 f8 ff 00 00 00 00	r2 = *(u64 *)(r10 - 0x8)
    1168:	7b 2a 90 ff 00 00 00 00	*(u64 *)(r10 - 0x70) = r2
    1169:	79 a2 f0 ff 00 00 00 00	r2 = *(u64 *)(r10 - 0x10)
    1170:	7b 2a 98 ff 00 00 00 00	*(u64 *)(r10 - 0x68) = r2
    1171:	79 a7 e0 ff 00 00 00 00	r7 = *(u64 *)(r10 - 0x20)
    1172:	07 01 00 00 58 00 00 00	r1 += 0x58
    1173:	18 02 00 00 60 0b 02 00 00 00 00 00 00 00 00 00	r2 = 0x20b60 ll
    1175:	b7 03 00 00 20 00 00 00	r3 = 0x20
    1176:	85 10 00 00 f6 37 00 00	call 0x37f6
    1177:	67 00 00 00 20 00 00 00	r0 <<= 0x20
    1178:	77 00 00 00 20 00 00 00	r0 >>= 0x20
    1179:	15 00 01 00 00 00 00 00	if r0 == 0x0 goto +0x1 <.text+0x23c8>
    1180:	05 00 21 00 00 00 00 00	goto +0x21 <.text+0x24d0>
    1181:	79 a1 80 ff 00 00 00 00	r1 = *(u64 *)(r10 - 0x80)
    1182:	57 01 00 00 01 00 00 00	r1 &= 0x1
    1183:	55 01 09 00 00 00 00 00	if r1 != 0x0 goto +0x9 <.text+0x2428>
    1184:	18 01 00 00 b0 41 02 00 00 00 00 00 00 00 00 00	r1 = 0x241b0 ll
    1186:	85 10 00 00 4f 2b 00 00	call 0x2b4f
    1187:	61 a1 e4 ff 00 00 00 00	r1 = *(u32 *)(r10 - 0x1c)
    1188:	61 a2 e0 ff 00 00 00 00	r2 = *(u32 *)(r10 - 0x20)
    1189:	63 16 0c 00 00 00 00 00	*(u32 *)(r6 + 0xc) = r1
    1190:	63 26 08 00 00 00 00 00	*(u32 *)(r6 + 0x8) = r2
    1191:	7a 06 00 00 00 00 00 00	*(u64 *)(r6 + 0x0) = 0x0
    1192:	05 00 2e 00 00 00 00 00	goto +0x2e <.text+0x2598>
    1193:	67 09 00 00 20 00 00 00	r9 <<= 0x20
    1194:	77 09 00 00 20 00 00 00	r9 >>= 0x20
    1195:	55 09 03 00 00 00 00 00	if r9 != 0x0 goto +0x3 <.text+0x2458>
    1196:	18 01 00 00 c8 41 02 00 00 00 00 00 00 00 00 00	r1 = 0x241c8 ll
    1198:	85 10 00 00 5f 35 00 00	call 0x355f
    1199:	bf a1 00 00 00 00 00 00	r1 = r10
    1200:	07 01 00 00 c0 ff ff ff	r1 += -0x40
    1201:	bf 72 00 00 00 00 00 00	r2 = r7
    1202:	b7 03 00 00 00 00 00 00	r3 = 0x0
    1203:	b7 04 00 00 00 ca 9a 3b	r4 = 0x3b9aca00
    1204:	b7 05 00 00 00 00 00 00	r5 = 0x0
    1205:	85 10 00 00 41 3b 00 00	call 0x3b41
    1206:	bf a1 00 00 00 00 00 00	r1 = r10
    1207:	07 01 00 00 b0 ff ff ff	r1 += -0x50
    1208:	79 a2 c0 ff 00 00 00 00	r2 = *(u64 *)(r10 - 0x40)
    1209:	79 a3 c8 ff 00 00 00 00	r3 = *(u64 *)(r10 - 0x38)
    1210:	bf 94 00 00 00 00 00 00	r4 = r9
    1211:	b7 05 00 00 00 00 00 00	r5 = 0x0
    1212:	85 10 00 00 55 3c 00 00	call 0x3c55
    1213:	79 a7 b0 ff 00 00 00 00	r7 = *(u64 *)(r10 - 0x50)
    1214:	57 08 00 00 01 00 00 00	r8 &= 0x1
    1215:	79 a3 a8 ff 00 00 00 00	r3 = *(u64 *)(r10 - 0x58)
    1216:	55 08 08 00 00 00 00 00	if r8 != 0x0 goto +0x8 <.text+0x2528>
    1217:	79 a2 88 ff 00 00 00 00	r2 = *(u64 *)(r10 - 0x78)
    1218:	57 02 00 00 ff 00 00 00	r2 &= 0xff
    1219:	bf 71 00 00 00 00 00 00	r1 = r7
    1220:	2f 21 00 00 00 00 00 00	r1 *= r2
    1221:	bf 13 00 00 00 00 00 00	r3 = r1
    1222:	37 03 00 00 64 00 00 00	r3 /= 0x64
    1223:	25 01 01 00 03 87 01 00	if r1 > 0x18703 goto +0x1 <.text+0x2528>
    1224:	b7 03 00 00 e8 03 00 00	r3 = 0x3e8
    1225:	b7 01 00 00 72 17 00 00	r1 = 0x1772
    1226:	b7 02 00 00 00 00 00 00	r2 = 0x0
    1227:	3d 73 d9 ff 00 00 00 00	if r3 >= r7 goto -0x27 <.text+0x2408>
    1228:	79 a1 d0 ff 00 00 00 00	r1 = *(u64 *)(r10 - 0x30)
    1229:	79 a2 d8 ff 00 00 00 00	r2 = *(u64 *)(r10 - 0x28)
    1230:	7b 36 28 00 00 00 00 00	*(u64 *)(r6 + 0x28) = r3
    1231:	79 a3 90 ff 00 00 00 00	r3 = *(u64 *)(r10 - 0x70)
    1232:	7b 36 20 00 00 00 00 00	*(u64 *)(r6 + 0x20) = r3
    1233:	79 a3 98 ff 00 00 00 00	r3 = *(u64 *)(r10 - 0x68)
    1234:	7b 36 18 00 00 00 00 00	*(u64 *)(r6 + 0x18) = r3
    1235:	79 a3 a0 ff 00 00 00 00	r3 = *(u64 *)(r10 - 0x60)
    1236:	7b 36 10 00 00 00 00 00	*(u64 *)(r6 + 0x10) = r3
    1237:	7b 26 08 00 00 00 00 00	*(u64 *)(r6 + 0x8) = r2
    1238:	7b 16 00 00 00 00 00 00	*(u64 *)(r6 + 0x0) = r1
    1239:	95 00 00 00 00 00 00 00	exit
    1240:	bf 38 00 00 00 00 00 00	r8 = r3
    1241:	bf 29 00 00 00 00 00 00	r9 = r2
    1242:	7b 1a 70 f9 00 00 00 00	*(u64 *)(r10 - 0x690) = r1
    1243:	79 51 08 f0 00 00 00 00	r1 = *(u64 *)(r5 - 0xff8)
    1244:	7b 1a b0 f9 00 00 00 00	*(u64 *)(r10 - 0x650) = r1
    1245:	79 51 00 f0 00 00 00 00	r1 = *(u64 *)(r5 - 0x1000)
    1246:	7b 1a a8 f9 00 00 00 00	*(u64 *)(r10 - 0x658) = r1
    1247:	bf a1 00 00 00 00 00 00	r1 = r10
    1248:	07 01 00 00 f0 f9 ff ff	r1 += -0x610
    1249:	bf a1 00 00 00 00 00 00	r1 = r10
    1250:	07 01 00 00 f0 f9 ff ff	r1 += -0x610
    1251:	bf a1 00 00 00 00 00 00	r1 = r10
    1252:	07 01 00 00 f0 f9 ff ff	r1 += -0x610
    1253:	bf a1 00 00 00 00 00 00	r1 = r10
    1254:	07 01 00 00 f0 f9 ff ff	r1 += -0x610
    1255:	bf a1 00 00 00 00 00 00	r1 = r10
    1256:	07 01 00 00 f0 f9 ff ff	r1 += -0x610
    1257:	bf a1 00 00 00 00 00 00	r1 = r10
    1258:	07 01 00 00 f0 f9 ff ff	r1 += -0x610
    1259:	bf a1 00 00 00 00 00 00	r1 = r10
    1260:	07 01 00 00 f0 f9 ff ff	r1 += -0x610
    1261:	bf a1 00 00 00 00 00 00	r1 = r10
    1262:	07 01 00 00 f0 f9 ff ff	r1 += -0x610
    1263:	bf 91 00 00 00 00 00 00	r1 = r9
    1264:	57 01 00 00 ff 00 00 00	r1 &= 0xff
    1265:	79 43 00 00 00 00 00 00	r3 = *(u64 *)(r4 + 0x0)
    1266:	7b 4a 80 f9 00 00 00 00	*(u64 *)(r10 - 0x680) = r4
    1267:	79 42 08 00 00 00 00 00	r2 = *(u64 *)(r4 + 0x8)
    1268:	7b 3a 68 f9 00 00 00 00	*(u64 *)(r10 - 0x698) = r3
    1269:	7b 3a 78 f9 00 00 00 00	*(u64 *)(r10 - 0x688) = r3
    1270:	7b 1a 88 f9 00 00 00 00	*(u64 *)(r10 - 0x678) = r1
    1271:	2d 12 02 00 00 00 00 00	if r2 > r1 goto +0x2 <.text+0x26b0>
    1272:	b7 01 00 00 00 00 00 00	r1 = 0x0
    1273:	7b 1a 78 f9 00 00 00 00	*(u64 *)(r10 - 0x688) = r1
    1274:	b7 06 00 00 0a 00 00 00	r6 = 0xa
    1275:	79 a1 88 f9 00 00 00 00	r1 = *(u64 *)(r10 - 0x678)
    1276:	7b 2a 60 f9 00 00 00 00	*(u64 *)(r10 - 0x6a0) = r2
    1277:	bd 12 5a 05 00 00 00 00	if r2 <= r1 goto +0x55a <.text+0x51a0>
    1278:	79 a1 88 f9 00 00 00 00	r1 = *(u64 *)(r10 - 0x678)
    1279:	07 01 00 00 01 00 00 00	r1 += 0x1
    1280:	79 a2 60 f9 00 00 00 00	r2 = *(u64 *)(r10 - 0x6a0)
    1281:	1f 12 00 00 00 00 00 00	r2 -= r1
    1282:	79 a3 80 f9 00 00 00 00	r3 = *(u64 *)(r10 - 0x680)
    1283:	7b 23 08 00 00 00 00 00	*(u64 *)(r3 + 0x8) = r2
    1284:	67 01 00 00 03 00 00 00	r1 <<= 0x3
    1285:	79 a4 68 f9 00 00 00 00	r4 = *(u64 *)(r10 - 0x698)
    1286:	bf 42 00 00 00 00 00 00	r2 = r4
    1287:	0f 12 00 00 00 00 00 00	r2 += r1
    1288:	7b 23 00 00 00 00 00 00	*(u64 *)(r3 + 0x0) = r2
    1289:	79 41 08 00 00 00 00 00	r1 = *(u64 *)(r4 + 0x8)
    1290:	79 12 50 00 00 00 00 00	r2 = *(u64 *)(r1 + 0x50)
    1291:	25 02 04 00 47 00 00 00	if r2 > 0x47 goto +0x4 <.text+0x2760>
    1292:	b7 01 00 00 48 00 00 00	r1 = 0x48
    1293:	18 03 00 00 e0 41 02 00 00 00 00 00 00 00 00 00	r3 = 0x241e0 ll
    1295:	85 10 00 00 43 32 00 00	call 0x3243
    1296:	79 11 98 00 00 00 00 00	r1 = *(u64 *)(r1 + 0x98)
    1297:	7b 1a 28 f9 00 00 00 00	*(u64 *)(r10 - 0x6d8) = r1
    1298:	85 10 00 00 ff ff ff ff	call -0x1
    1299:	57 09 00 00 ff 00 00 00	r9 &= 0xff
    1300:	15 09 48 05 00 00 00 00	if r9 == 0x0 goto +0x548 <.text+0x51c8>
    1301:	79 a1 28 f9 00 00 00 00	r1 = *(u64 *)(r10 - 0x6d8)
    1302:	7b 1a 38 f9 00 00 00 00	*(u64 *)(r10 - 0x6c8) = r1
    1303:	ad 81 01 00 00 00 00 00	if r1 < r8 goto +0x1 <.text+0x27a8>
    1304:	7b 8a 38 f9 00 00 00 00	*(u64 *)(r10 - 0x6c8) = r8
    1305:	b7 04 00 00 00 00 00 00	r4 = 0x0
    1306:	bf a1 00 00 00 00 00 00	r1 = r10
    1307:	07 01 00 00 f9 f9 ff ff	r1 += -0x607
    1308:	7b 1a 00 f9 00 00 00 00	*(u64 *)(r10 - 0x700) = r1
    1309:	bf a1 00 00 00 00 00 00	r1 = r10
    1310:	07 01 00 00 f9 f9 ff ff	r1 += -0x607
    1311:	7b 1a f8 f8 00 00 00 00	*(u64 *)(r10 - 0x708) = r1
    1312:	bf a1 00 00 00 00 00 00	r1 = r10
    1313:	07 01 00 00 f9 f9 ff ff	r1 += -0x607
    1314:	7b 1a e8 f8 00 00 00 00	*(u64 *)(r10 - 0x718) = r1
    1315:	bf a1 00 00 00 00 00 00	r1 = r10
    1316:	07 01 00 00 f9 f9 ff ff	r1 += -0x607
    1317:	7b 1a e0 f8 00 00 00 00	*(u64 *)(r10 - 0x720) = r1
    1318:	bf a1 00 00 00 00 00 00	r1 = r10
    1319:	07 01 00 00 f9 f9 ff ff	r1 += -0x607
    1320:	7b 1a d8 f8 00 00 00 00	*(u64 *)(r10 - 0x728) = r1
    1321:	bf a1 00 00 00 00 00 00	r1 = r10
    1322:	07 01 00 00 f9 f9 ff ff	r1 += -0x607
    1323:	7b 1a d0 f8 00 00 00 00	*(u64 *)(r10 - 0x730) = r1
    1324:	bf a1 00 00 00 00 00 00	r1 = r10
    1325:	07 01 00 00 f9 f9 ff ff	r1 += -0x607
    1326:	7b 1a c8 f8 00 00 00 00	*(u64 *)(r10 - 0x738) = r1
    1327:	bf a1 00 00 00 00 00 00	r1 = r10
    1328:	07 01 00 00 f9 f9 ff ff	r1 += -0x607
    1329:	7b 1a c0 f8 00 00 00 00	*(u64 *)(r10 - 0x740) = r1
    1330:	bf a1 00 00 00 00 00 00	r1 = r10
    1331:	07 01 00 00 45 fb ff ff	r1 += -0x4bb
    1332:	7b 1a 08 f9 00 00 00 00	*(u64 *)(r10 - 0x6f8) = r1
    1333:	bf a1 00 00 00 00 00 00	r1 = r10
    1334:	07 01 00 00 c8 f9 ff ff	r1 += -0x638
    1335:	7b 1a f0 f8 00 00 00 00	*(u64 *)(r10 - 0x710) = r1
    1336:	b7 03 00 00 00 00 00 00	r3 = 0x0
    1337:	79 a1 70 f9 00 00 00 00	r1 = *(u64 *)(r10 - 0x690)
    1338:	07 03 00 00 01 00 00 00	r3 += 0x1
    1339:	b7 01 00 00 01 00 00 00	r1 = 0x1
    1340:	79 a2 88 f9 00 00 00 00	r2 = *(u64 *)(r10 - 0x678)
    1341:	1d 23 03 00 00 00 00 00	if r3 == r2 goto +0x3 <.text+0x28e8>
    1342:	bf 31 00 00 00 00 00 00	r1 = r3
    1343:	57 01 00 00 ff 00 00 00	r1 &= 0xff
    1344:	07 01 00 00 01 00 00 00	r1 += 0x1
    1345:	67 01 00 00 03 00 00 00	r1 <<= 0x3
    1346:	79 a5 78 f9 00 00 00 00	r5 = *(u64 *)(r10 - 0x688)
    1347:	0f 15 00 00 00 00 00 00	r5 += r1
    1348:	79 58 00 00 00 00 00 00	r8 = *(u64 *)(r5 + 0x0)
    1349:	79 82 50 00 00 00 00 00	r2 = *(u64 *)(r8 + 0x50)
    1350:	25 02 01 00 47 00 00 00	if r2 > 0x47 goto +0x1 <.text+0x2920>
    1351:	05 00 c4 ff 00 00 00 00	goto -0x3c <.text+0x2740>
    1352:	7b 5a 20 f9 00 00 00 00	*(u64 *)(r10 - 0x6e0) = r5
    1353:	7b 4a 18 f9 00 00 00 00	*(u64 *)(r10 - 0x6e8) = r4
    1354:	7b 3a 50 f9 00 00 00 00	*(u64 *)(r10 - 0x6b0) = r3
    1355:	b7 00 00 00 73 17 00 00	r0 = 0x1773
    1356:	b7 06 00 00 00 00 00 00	r6 = 0x0
    1357:	79 a1 80 f9 00 00 00 00	r1 = *(u64 *)(r10 - 0x680)
    1358:	79 12 08 00 00 00 00 00	r2 = *(u64 *)(r1 + 0x8)
    1359:	15 02 08 05 00 00 00 00	if r2 == 0x0 goto +0x508 <.text+0x51a0>
    1360:	79 81 98 00 00 00 00 00	r1 = *(u64 *)(r8 + 0x98)
    1361:	7b 1a 40 f9 00 00 00 00	*(u64 *)(r10 - 0x6c0) = r1
    1362:	7b 2a 48 f9 00 00 00 00	*(u64 *)(r10 - 0x6b8) = r2
    1363:	07 02 00 00 ff ff ff ff	r2 += -0x1
    1364:	79 a1 80 f9 00 00 00 00	r1 = *(u64 *)(r10 - 0x680)
    1365:	79 19 00 00 00 00 00 00	r9 = *(u64 *)(r1 + 0x0)
    1366:	79 97 00 00 00 00 00 00	r7 = *(u64 *)(r9 + 0x0)
    1367:	7b 2a 30 f9 00 00 00 00	*(u64 *)(r10 - 0x6d0) = r2
    1368:	7b 21 08 00 00 00 00 00	*(u64 *)(r1 + 0x8) = r2
    1369:	7b 9a 58 f9 00 00 00 00	*(u64 *)(r10 - 0x6a8) = r9
    1370:	07 09 00 00 08 00 00 00	r9 += 0x8
    1371:	7b 91 00 00 00 00 00 00	*(u64 *)(r1 + 0x0) = r9
    1372:	07 07 00 00 08 00 00 00	r7 += 0x8
    1373:	bf 71 00 00 00 00 00 00	r1 = r7
    1374:	18 02 00 00 08 12 02 00 00 00 00 00 00 00 00 00	r2 = 0x21208 ll
    1376:	b7 03 00 00 20 00 00 00	r3 = 0x20
    1377:	85 10 00 00 2d 37 00 00	call 0x372d
    1378:	67 00 00 00 20 00 00 00	r0 <<= 0x20
    1379:	77 00 00 00 20 00 00 00	r0 >>= 0x20
    1380:	7b 7a 10 f9 00 00 00 00	*(u64 *)(r10 - 0x6f0) = r7
    1381:	15 00 10 00 00 00 00 00	if r0 == 0x0 goto +0x10 <.text+0x2a90>
    1382:	bf 71 00 00 00 00 00 00	r1 = r7
    1383:	18 02 00 00 20 09 02 00 00 00 00 00 00 00 00 00	r2 = 0x20920 ll
    1385:	b7 03 00 00 20 00 00 00	r3 = 0x20
    1386:	85 10 00 00 24 37 00 00	call 0x3724
    1387:	67 00 00 00 20 00 00 00	r0 <<= 0x20
    1388:	77 00 00 00 20 00 00 00	r0 >>= 0x20
    1389:	15 00 08 00 00 00 00 00	if r0 == 0x0 goto +0x8 <.text+0x2a90>
    1390:	bf 71 00 00 00 00 00 00	r1 = r7
    1391:	18 02 00 00 e0 09 02 00 00 00 00 00 00 00 00 00	r2 = 0x209e0 ll
    1393:	b7 03 00 00 20 00 00 00	r3 = 0x20
    1394:	85 10 00 00 1c 37 00 00	call 0x371c
    1395:	67 00 00 00 20 00 00 00	r0 <<= 0x20
    1396:	77 00 00 00 20 00 00 00	r0 >>= 0x20
    1397:	55 00 55 00 00 00 00 00	if r0 != 0x0 goto +0x55 <.text+0x2d38>
    1398:	79 a1 50 f9 00 00 00 00	r1 = *(u64 *)(r10 - 0x6b0)
    1399:	67 01 00 00 03 00 00 00	r1 <<= 0x3
    1400:	79 a2 78 f9 00 00 00 00	r2 = *(u64 *)(r10 - 0x688)
    1401:	0f 12 00 00 00 00 00 00	r2 += r1
    1402:	79 21 00 00 00 00 00 00	r1 = *(u64 *)(r2 + 0x0)
    1403:	07 01 00 00 28 00 00 00	r1 += 0x28
    1404:	18 02 00 00 20 0b 02 00 00 00 00 00 00 00 00 00	r2 = 0x20b20 ll
    1406:	b7 03 00 00 20 00 00 00	r3 = 0x20
    1407:	85 10 00 00 0f 37 00 00	call 0x370f
    1408:	67 00 00 00 20 00 00 00	r0 <<= 0x20
    1409:	77 00 00 00 20 00 00 00	r0 >>= 0x20
    1410:	15 00 28 00 00 00 00 00	if r0 == 0x0 goto +0x28 <.text+0x2c38>
    1411:	07 08 00 00 28 00 00 00	r8 += 0x28
    1412:	bf 81 00 00 00 00 00 00	r1 = r8
    1413:	18 02 00 00 20 0b 02 00 00 00 00 00 00 00 00 00	r2 = 0x20b20 ll
    1415:	b7 03 00 00 20 00 00 00	r3 = 0x20
    1416:	85 10 00 00 06 37 00 00	call 0x3706
    1417:	67 00 00 00 20 00 00 00	r0 <<= 0x20
    1418:	77 00 00 00 20 00 00 00	r0 >>= 0x20
    1419:	15 00 1f 00 00 00 00 00	if r0 == 0x0 goto +0x1f <.text+0x2c38>
    1420:	18 04 00 00 3c 96 24 db 00 00 00 00 61 80 8b 99	r4 = -0x66747f9e24db69c4 ll
    1422:	79 a2 48 f9 00 00 00 00	r2 = *(u64 *)(r10 - 0x6b8)
    1423:	79 a5 58 f9 00 00 00 00	r5 = *(u64 *)(r10 - 0x6a8)
    1424:	79 a7 30 f9 00 00 00 00	r7 = *(u64 *)(r10 - 0x6d0)
    1425:	b7 00 00 00 73 17 00 00	r0 = 0x1773
    1426:	a5 02 c5 04 0c 00 00 00	if r2 < 0xc goto +0x4c5 <.text+0x51a0>
    1427:	bf 71 00 00 00 00 00 00	r1 = r7
    1428:	67 01 00 00 03 00 00 00	r1 <<= 0x3
    1429:	15 01 c2 04 50 00 00 00	if r1 == 0x50 goto +0x4c2 <.text+0x51a0>
    1430:	b7 01 00 00 00 00 00 00	r1 = 0x0
    1431:	07 05 00 00 60 00 00 00	r5 += 0x60
    1432:	bf 28 00 00 00 00 00 00	r8 = r2
    1433:	67 08 00 00 03 00 00 00	r8 <<= 0x3
    1434:	07 08 00 00 a8 ff ff ff	r8 += -0x58
    1435:	05 00 08 00 00 00 00 00	goto +0x8 <.text+0x2c00>
    1436:	79 32 58 00 00 00 00 00	r2 = *(u64 *)(r3 + 0x58)
    1437:	1d 42 42 01 00 00 00 00	if r2 == r4 goto +0x142 <.text+0x35e0>
    1438:	b7 06 00 00 00 00 00 00	r6 = 0x0
    1439:	07 05 00 00 08 00 00 00	r5 += 0x8
    1440:	07 01 00 00 01 00 00 00	r1 += 0x1
    1441:	07 08 00 00 f8 ff ff ff	r8 += -0x8
    1442:	b7 00 00 00 73 17 00 00	r0 = 0x1773
    1443:	15 08 b4 04 00 00 00 00	if r8 == 0x0 goto +0x4b4 <.text+0x51a0>
    1444:	79 53 f8 ff 00 00 00 00	r3 = *(u64 *)(r5 - 0x8)
    1445:	79 32 50 00 00 00 00 00	r2 = *(u64 *)(r3 + 0x50)
    1446:	25 02 f5 ff 07 00 00 00	if r2 > 0x7 goto -0xb <.text+0x2bc0>
    1447:	b7 01 00 00 08 00 00 00	r1 = 0x8
    1448:	18 03 00 00 28 42 02 00 00 00 00 00 00 00 00 00	r3 = 0x24228 ll
    1450:	85 10 00 00 a8 31 00 00	call 0x31a8
    1451:	18 04 00 00 3c 96 24 db 00 00 00 00 61 80 8b 99	r4 = -0x66747f9e24db69c4 ll
    1453:	79 a2 48 f9 00 00 00 00	r2 = *(u64 *)(r10 - 0x6b8)
    1454:	79 a3 58 f9 00 00 00 00	r3 = *(u64 *)(r10 - 0x6a8)
    1455:	79 a5 30 f9 00 00 00 00	r5 = *(u64 *)(r10 - 0x6d0)
    1456:	b7 00 00 00 73 17 00 00	r0 = 0x1773
    1457:	a5 02 a6 04 10 00 00 00	if r2 < 0x10 goto +0x4a6 <.text+0x51a0>
    1458:	bf 51 00 00 00 00 00 00	r1 = r5
    1459:	67 01 00 00 03 00 00 00	r1 <<= 0x3
    1460:	15 01 a3 04 70 00 00 00	if r1 == 0x70 goto +0x4a3 <.text+0x51a0>
    1461:	b7 01 00 00 00 00 00 00	r1 = 0x0
    1462:	bf 38 00 00 00 00 00 00	r8 = r3
    1463:	07 08 00 00 80 00 00 00	r8 += 0x80
    1464:	bf 27 00 00 00 00 00 00	r7 = r2
    1465:	67 07 00 00 03 00 00 00	r7 <<= 0x3
    1466:	07 07 00 00 88 ff ff ff	r7 += -0x78
    1467:	05 00 08 00 00 00 00 00	goto +0x8 <.text+0x2d00>
    1468:	79 32 58 00 00 00 00 00	r2 = *(u64 *)(r3 + 0x58)
    1469:	1d 42 ab 00 00 00 00 00	if r2 == r4 goto +0xab <.text+0x3228>
    1470:	b7 06 00 00 00 00 00 00	r6 = 0x0
    1471:	07 08 00 00 08 00 00 00	r8 += 0x8
    1472:	07 01 00 00 01 00 00 00	r1 += 0x1
    1473:	07 07 00 00 f8 ff ff ff	r7 += -0x8
    1474:	b7 00 00 00 73 17 00 00	r0 = 0x1773
    1475:	15 07 94 04 00 00 00 00	if r7 == 0x0 goto +0x494 <.text+0x51a0>
    1476:	79 83 f8 ff 00 00 00 00	r3 = *(u64 *)(r8 - 0x8)
    1477:	79 32 50 00 00 00 00 00	r2 = *(u64 *)(r3 + 0x50)
    1478:	25 02 f5 ff 07 00 00 00	if r2 > 0x7 goto -0xb <.text+0x2cc0>
    1479:	b7 01 00 00 08 00 00 00	r1 = 0x8
    1480:	18 03 00 00 58 42 02 00 00 00 00 00 00 00 00 00	r3 = 0x24258 ll
    1482:	85 10 00 00 88 31 00 00	call 0x3188
    1483:	bf 71 00 00 00 00 00 00	r1 = r7
    1484:	18 02 00 00 e8 11 02 00 00 00 00 00 00 00 00 00	r2 = 0x211e8 ll
    1486:	b7 03 00 00 20 00 00 00	r3 = 0x20
    1487:	85 10 00 00 bf 36 00 00	call 0x36bf
    1488:	67 00 00 00 20 00 00 00	r0 <<= 0x20
    1489:	77 00 00 00 20 00 00 00	r0 >>= 0x20
    1490:	15 00 71 01 00 00 00 00	if r0 == 0x0 goto +0x171 <.text+0x3900>
    1491:	bf 71 00 00 00 00 00 00	r1 = r7
    1492:	18 02 00 00 28 12 02 00 00 00 00 00 00 00 00 00	r2 = 0x21228 ll
    1494:	b7 03 00 00 20 00 00 00	r3 = 0x20
    1495:	85 10 00 00 b7 36 00 00	call 0x36b7
    1496:	67 00 00 00 20 00 00 00	r0 <<= 0x20
    1497:	77 00 00 00 20 00 00 00	r0 >>= 0x20
    1498:	15 00 b9 01 00 00 00 00	if r0 == 0x0 goto +0x1b9 <.text+0x3b80>
    1499:	bf 71 00 00 00 00 00 00	r1 = r7
    1500:	18 02 00 00 c8 11 02 00 00 00 00 00 00 00 00 00	r2 = 0x211c8 ll
    1502:	b7 03 00 00 20 00 00 00	r3 = 0x20
    1503:	85 10 00 00 af 36 00 00	call 0x36af
    1504:	67 00 00 00 20 00 00 00	r0 <<= 0x20
    1505:	77 00 00 00 20 00 00 00	r0 >>= 0x20
    1506:	15 00 f6 01 00 00 00 00	if r0 == 0x0 goto +0x1f6 <.text+0x3da8>
    1507:	bf 71 00 00 00 00 00 00	r1 = r7
    1508:	18 02 00 00 a0 0b 02 00 00 00 00 00 00 00 00 00	r2 = 0x20ba0 ll
    1510:	b7 03 00 00 20 00 00 00	r3 = 0x20
    1511:	85 10 00 00 a7 36 00 00	call 0x36a7
    1512:	67 00 00 00 20 00 00 00	r0 <<= 0x20
    1513:	77 00 00 00 20 00 00 00	r0 >>= 0x20
    1514:	15 00 6e 02 00 00 00 00	if r0 == 0x0 goto +0x26e <.text+0x41a8>
    1515:	bf 71 00 00 00 00 00 00	r1 = r7
    1516:	18 02 00 00 80 0b 02 00 00 00 00 00 00 00 00 00	r2 = 0x20b80 ll
    1518:	b7 03 00 00 20 00 00 00	r3 = 0x20
    1519:	85 10 00 00 9f 36 00 00	call 0x369f
    1520:	67 00 00 00 20 00 00 00	r0 <<= 0x20
    1521:	77 00 00 00 20 00 00 00	r0 >>= 0x20
    1522:	15 00 76 02 00 00 00 00	if r0 == 0x0 goto +0x276 <.text+0x4228>
    1523:	bf 71 00 00 00 00 00 00	r1 = r7
    1524:	18 02 00 00 20 0a 02 00 00 00 00 00 00 00 00 00	r2 = 0x20a20 ll
    1526:	b7 03 00 00 20 00 00 00	r3 = 0x20
    1527:	85 10 00 00 97 36 00 00	call 0x3697
    1528:	67 00 00 00 20 00 00 00	r0 <<= 0x20
    1529:	77 00 00 00 20 00 00 00	r0 >>= 0x20
    1530:	15 00 e0 02 00 00 00 00	if r0 == 0x0 goto +0x2e0 <.text+0x45b8>
    1531:	bf 71 00 00 00 00 00 00	r1 = r7
    1532:	18 02 00 00 a6 12 02 00 00 00 00 00 00 00 00 00	r2 = 0x212a6 ll
    1534:	b7 03 00 00 20 00 00 00	r3 = 0x20
    1535:	85 10 00 00 8f 36 00 00	call 0x368f
    1536:	67 00 00 00 20 00 00 00	r0 <<= 0x20
    1537:	77 00 00 00 20 00 00 00	r0 >>= 0x20
    1538:	15 00 26 03 00 00 00 00	if r0 == 0x0 goto +0x326 <.text+0x4828>
    1539:	bf 71 00 00 00 00 00 00	r1 = r7
    1540:	18 02 00 00 e0 0a 02 00 00 00 00 00 00 00 00 00	r2 = 0x20ae0 ll
    1542:	b7 03 00 00 20 00 00 00	r3 = 0x20
    1543:	85 10 00 00 87 36 00 00	call 0x3687
    1544:	67 00 00 00 20 00 00 00	r0 <<= 0x20
    1545:	77 00 00 00 20 00 00 00	r0 >>= 0x20
    1546:	15 00 28 04 00 00 00 00	if r0 == 0x0 goto +0x428 <.text+0x5078>
    1547:	18 01 00 00 e4 10 02 00 00 00 00 00 00 00 00 00	r1 = 0x210e4 ll
    1549:	bf 72 00 00 00 00 00 00	r2 = r7
    1550:	b7 03 00 00 20 00 00 00	r3 = 0x20
    1551:	85 10 00 00 7f 36 00 00	call 0x367f
    1552:	67 00 00 00 20 00 00 00	r0 <<= 0x20
    1553:	77 00 00 00 20 00 00 00	r0 >>= 0x20
    1554:	15 00 17 04 00 00 00 00	if r0 == 0x0 goto +0x417 <.text+0x5030>
    1555:	18 01 00 00 e4 10 02 00 00 00 00 00 00 00 00 00	r1 = 0x210e4 ll
    1557:	07 01 00 00 20 00 00 00	r1 += 0x20
    1558:	bf 72 00 00 00 00 00 00	r2 = r7
    1559:	b7 03 00 00 20 00 00 00	r3 = 0x20
    1560:	85 10 00 00 76 36 00 00	call 0x3676
    1561:	67 00 00 00 20 00 00 00	r0 <<= 0x20
    1562:	77 00 00 00 20 00 00 00	r0 >>= 0x20
    1563:	15 00 0e 04 00 00 00 00	if r0 == 0x0 goto +0x40e <.text+0x5030>
    1564:	18 01 00 00 e4 10 02 00 00 00 00 00 00 00 00 00	r1 = 0x210e4 ll
    1566:	07 01 00 00 40 00 00 00	r1 += 0x40
    1567:	bf 72 00 00 00 00 00 00	r2 = r7
    1568:	b7 03 00 00 20 00 00 00	r3 = 0x20
    1569:	85 10 00 00 6d 36 00 00	call 0x366d
    1570:	67 00 00 00 20 00 00 00	r0 <<= 0x20
    1571:	77 00 00 00 20 00 00 00	r0 >>= 0x20
    1572:	15 00 05 04 00 00 00 00	if r0 == 0x0 goto +0x405 <.text+0x5030>
    1573:	18 01 00 00 e4 10 02 00 00 00 00 00 00 00 00 00	r1 = 0x210e4 ll
    1575:	07 01 00 00 60 00 00 00	r1 += 0x60
    1576:	bf 72 00 00 00 00 00 00	r2 = r7
    1577:	b7 03 00 00 20 00 00 00	r3 = 0x20
    1578:	85 10 00 00 64 36 00 00	call 0x3664
    1579:	67 00 00 00 20 00 00 00	r0 <<= 0x20
    1580:	77 00 00 00 20 00 00 00	r0 >>= 0x20
    1581:	15 00 fc 03 00 00 00 00	if r0 == 0x0 goto +0x3fc <.text+0x5030>
    1582:	18 01 00 00 e4 10 02 00 00 00 00 00 00 00 00 00	r1 = 0x210e4 ll
    1584:	07 01 00 00 80 00 00 00	r1 += 0x80
    1585:	bf 72 00 00 00 00 00 00	r2 = r7
    1586:	b7 03 00 00 20 00 00 00	r3 = 0x20
    1587:	85 10 00 00 5b 36 00 00	call 0x365b
    1588:	67 00 00 00 20 00 00 00	r0 <<= 0x20
    1589:	77 00 00 00 20 00 00 00	r0 >>= 0x20
    1590:	15 00 f3 03 00 00 00 00	if r0 == 0x0 goto +0x3f3 <.text+0x5030>
    1591:	bf 71 00 00 00 00 00 00	r1 = r7
    1592:	18 02 00 00 00 09 02 00 00 00 00 00 00 00 00 00	r2 = 0x20900 ll
    1594:	b7 03 00 00 20 00 00 00	r3 = 0x20
    1595:	85 10 00 00 53 36 00 00	call 0x3653
    1596:	67 00 00 00 20 00 00 00	r0 <<= 0x20
    1597:	77 00 00 00 20 00 00 00	r0 >>= 0x20
    1598:	15 00 fd 03 00 00 00 00	if r0 == 0x0 goto +0x3fd <.text+0x50c0>
    1599:	bf 71 00 00 00 00 00 00	r1 = r7
    1600:	18 02 00 00 80 09 02 00 00 00 00 00 00 00 00 00	r2 = 0x20980 ll
    1602:	b7 03 00 00 20 00 00 00	r3 = 0x20
    1603:	85 10 00 00 4b 36 00 00	call 0x364b
    1604:	67 00 00 00 20 00 00 00	r0 <<= 0x20
    1605:	77 00 00 00 20 00 00 00	r0 >>= 0x20
    1606:	15 00 fe 03 00 00 00 00	if r0 == 0x0 goto +0x3fe <.text+0x5108>
    1607:	bf 71 00 00 00 00 00 00	r1 = r7
    1608:	18 02 00 00 60 0a 02 00 00 00 00 00 00 00 00 00	r2 = 0x20a60 ll
    1610:	b7 03 00 00 20 00 00 00	r3 = 0x20
    1611:	85 10 00 00 43 36 00 00	call 0x3643
    1612:	67 00 00 00 20 00 00 00	r0 <<= 0x20
    1613:	77 00 00 00 20 00 00 00	r0 >>= 0x20
    1614:	15 00 ff 03 00 00 00 00	if r0 == 0x0 goto +0x3ff <.text+0x5150>
    1615:	bf 78 00 00 00 00 00 00	r8 = r7
    1616:	bf 71 00 00 00 00 00 00	r1 = r7
    1617:	18 02 00 00 a0 0a 02 00 00 00 00 00 00 00 00 00	r2 = 0x20aa0 ll
    1619:	b7 03 00 00 20 00 00 00	r3 = 0x20
    1620:	85 10 00 00 3a 36 00 00	call 0x363a
    1621:	bf 01 00 00 00 00 00 00	r1 = r0
    1622:	b7 00 00 00 70 17 00 00	r0 = 0x1770
    1623:	67 01 00 00 20 00 00 00	r1 <<= 0x20
    1624:	77 01 00 00 20 00 00 00	r1 >>= 0x20
    1625:	15 01 01 00 00 00 00 00	if r1 == 0x0 goto +0x1 <.text+0x31b8>
    1626:	05 00 fd 03 00 00 00 00	goto +0x3fd <.text+0x51a0>
    1627:	79 a1 50 f9 00 00 00 00	r1 = *(u64 *)(r10 - 0x6b0)
    1628:	67 01 00 00 03 00 00 00	r1 <<= 0x3
    1629:	79 a2 78 f9 00 00 00 00	r2 = *(u64 *)(r10 - 0x688)
    1630:	0f 12 00 00 00 00 00 00	r2 += r1
    1631:	79 24 00 00 00 00 00 00	r4 = *(u64 *)(r2 + 0x0)
    1632:	bf 81 00 00 00 00 00 00	r1 = r8
    1633:	79 a2 80 f9 00 00 00 00	r2 = *(u64 *)(r10 - 0x680)
    1634:	79 a3 38 f9 00 00 00 00	r3 = *(u64 *)(r10 - 0x6c8)
    1635:	85 10 00 00 a7 08 00 00	call 0x8a7
    1636:	bf 01 00 00 00 00 00 00	r1 = r0
    1637:	67 01 00 00 20 00 00 00	r1 <<= 0x20
    1638:	77 01 00 00 20 00 00 00	r1 >>= 0x20
    1639:	15 01 2e 03 6f 17 00 00	if r1 == 0x176f goto +0x32e <.text+0x4b90>
    1640:	05 00 ef 03 00 00 00 00	goto +0x3ef <.text+0x51a0>
    1641:	bf 12 00 00 00 00 00 00	r2 = r1
    1642:	07 02 00 00 0f 00 00 00	r2 += 0xf
    1643:	bd 52 05 00 00 00 00 00	if r2 <= r5 goto +0x5 <.text+0x3268>
    1644:	07 01 00 00 0f 00 00 00	r1 += 0xf
    1645:	bf 52 00 00 00 00 00 00	r2 = r5
    1646:	18 03 00 00 40 42 02 00 00 00 00 00 00 00 00 00	r3 = 0x24240 ll
    1648:	85 10 00 00 e2 30 00 00	call 0x30e2
    1649:	7b 1a 30 f9 00 00 00 00	*(u64 *)(r10 - 0x6d0) = r1
    1650:	7b 2a 98 f9 00 00 00 00	*(u64 *)(r10 - 0x668) = r2
    1651:	7b 2a b8 f8 00 00 00 00	*(u64 *)(r10 - 0x748) = r2
    1652:	a5 02 02 00 15 00 00 00	if r2 < 0x15 goto +0x2 <.text+0x3298>
    1653:	b7 01 00 00 15 00 00 00	r1 = 0x15
    1654:	7b 1a 98 f9 00 00 00 00	*(u64 *)(r10 - 0x668) = r1
    1655:	b7 02 00 00 00 00 00 00	r2 = 0x0
    1656:	79 a3 00 f9 00 00 00 00	r3 = *(u64 *)(r10 - 0x700)
    1657:	b7 04 00 00 00 00 00 00	r4 = 0x0
    1658:	7b 8a 90 f9 00 00 00 00	*(u64 *)(r10 - 0x670) = r8
    1659:	05 00 33 00 00 00 00 00	goto +0x33 <.text+0x3458>
    1660:	bf a7 00 00 00 00 00 00	r7 = r10
    1661:	07 07 00 00 40 fb ff ff	r7 += -0x4c0
    1662:	0f 27 00 00 00 00 00 00	r7 += r2
    1663:	79 68 50 00 00 00 00 00	r8 = *(u64 *)(r6 + 0x50)
    1664:	bf 65 00 00 00 00 00 00	r5 = r6
    1665:	07 05 00 00 28 00 00 00	r5 += 0x28
    1666:	7b 57 20 00 00 00 00 00	*(u64 *)(r7 + 0x20) = r5
    1667:	bf 65 00 00 00 00 00 00	r5 = r6
    1668:	07 05 00 00 58 00 00 00	r5 += 0x58
    1669:	7b 57 18 00 00 00 00 00	*(u64 *)(r7 + 0x18) = r5
    1670:	7b 87 10 00 00 00 00 00	*(u64 *)(r7 + 0x10) = r8
    1671:	bf 65 00 00 00 00 00 00	r5 = r6
    1672:	07 05 00 00 48 00 00 00	r5 += 0x48
    1673:	7b 57 08 00 00 00 00 00	*(u64 *)(r7 + 0x8) = r5
    1674:	73 97 32 00 00 00 00 00	*(u8 *)(r7 + 0x32) = r9
    1675:	07 06 00 00 08 00 00 00	r6 += 0x8
    1676:	7b 67 00 00 00 00 00 00	*(u64 *)(r7 + 0x0) = r6
    1677:	73 17 31 00 00 00 00 00	*(u8 *)(r7 + 0x31) = r1
    1678:	73 07 30 00 00 00 00 00	*(u8 *)(r7 + 0x30) = r0
    1679:	7a 07 28 00 00 00 00 00	*(u64 *)(r7 + 0x28) = 0x0
    1680:	73 03 00 00 00 00 00 00	*(u8 *)(r3 + 0x0) = r0
    1681:	73 13 ff ff 00 00 00 00	*(u8 *)(r3 - 0x1) = r1
    1682:	7b 63 f7 ff 00 00 00 00	*(u64 *)(r3 - 0x9) = r6
    1683:	07 03 00 00 10 00 00 00	r3 += 0x10
    1684:	79 a9 a0 f9 00 00 00 00	r9 = *(u64 *)(r10 - 0x660)
    1685:	07 09 00 00 08 00 00 00	r9 += 0x8
    1686:	07 02 00 00 38 00 00 00	r2 += 0x38
    1687:	07 04 00 00 01 00 00 00	r4 += 0x1
    1688:	79 a8 90 f9 00 00 00 00	r8 = *(u64 *)(r10 - 0x670)
    1689:	79 a1 98 f9 00 00 00 00	r1 = *(u64 *)(r10 - 0x668)
    1690:	ad 14 14 00 00 00 00 00	if r4 < r1 goto +0x14 <.text+0x3458>
    1691:	79 a1 58 f9 00 00 00 00	r1 = *(u64 *)(r10 - 0x6a8)
    1692:	79 12 60 00 00 00 00 00	r2 = *(u64 *)(r1 + 0x60)
    1693:	79 11 18 00 00 00 00 00	r1 = *(u64 *)(r1 + 0x18)
    1694:	07 01 00 00 a1 00 00 00	r1 += 0xa1
    1695:	07 02 00 00 08 00 00 00	r2 += 0x8
    1696:	b7 03 00 00 20 00 00 00	r3 = 0x20
    1697:	85 10 00 00 ed 35 00 00	call 0x35ed
    1698:	79 a1 38 f9 00 00 00 00	r1 = *(u64 *)(r10 - 0x6c8)
    1699:	7b 1a c0 f9 00 00 00 00	*(u64 *)(r10 - 0x640) = r1
    1700:	18 01 00 00 2b 04 ed 0b 00 00 00 00 1a c9 1e 62	r1 = 0x621ec91a0bed042b ll
    1702:	7b 1a b8 f9 00 00 00 00	*(u64 *)(r10 - 0x648) = r1
    1703:	67 00 00 00 20 00 00 00	r0 <<= 0x20
    1704:	77 00 00 00 20 00 00 00	r0 >>= 0x20
    1705:	18 01 00 00 51 3b 01 00 00 00 00 00 01 00 00 00	r1 = 0x100013b51 ll
    1707:	15 00 12 00 00 00 00 00	if r0 == 0x0 goto +0x12 <.text+0x34d0>
    1708:	18 01 00 00 9a 57 69 4e 00 00 00 00 a9 1a 5c 84	r1 = -0x7ba3e556b196a866 ll
    1710:	05 00 0f 00 00 00 00 00	goto +0xf <.text+0x34d0>
    1711:	7b 9a a0 f9 00 00 00 00	*(u64 *)(r10 - 0x660) = r9
    1712:	79 96 00 00 00 00 00 00	r6 = *(u64 *)(r9 + 0x0)
    1713:	71 61 01 00 00 00 00 00	r1 = *(u8 *)(r6 + 0x1)
    1714:	b7 09 00 00 01 00 00 00	r9 = 0x1
    1715:	b7 00 00 00 01 00 00 00	r0 = 0x1
    1716:	55 01 01 00 00 00 00 00	if r1 != 0x0 goto +0x1 <.text+0x3490>
    1717:	b7 00 00 00 00 00 00 00	r0 = 0x0
    1718:	71 67 02 00 00 00 00 00	r7 = *(u8 *)(r6 + 0x2)
    1719:	b7 01 00 00 01 00 00 00	r1 = 0x1
    1720:	55 07 01 00 00 00 00 00	if r7 != 0x0 goto +0x1 <.text+0x34b0>
    1721:	b7 01 00 00 00 00 00 00	r1 = 0x0
    1722:	71 67 03 00 00 00 00 00	r7 = *(u8 *)(r6 + 0x3)
    1723:	55 07 c0 ff 00 00 00 00	if r7 != 0x0 goto -0x40 <.text+0x32c0>
    1724:	b7 09 00 00 00 00 00 00	r9 = 0x0
    1725:	05 00 be ff 00 00 00 00	goto -0x42 <.text+0x32c0>
    1726:	b7 02 00 00 00 00 00 00	r2 = 0x0
    1727:	79 a3 10 f9 00 00 00 00	r3 = *(u64 *)(r10 - 0x6f0)
    1728:	79 a6 30 f9 00 00 00 00	r6 = *(u64 *)(r10 - 0x6d0)
    1729:	15 00 02 00 00 00 00 00	if r0 == 0x0 goto +0x2 <.text+0x3500>
    1730:	18 02 00 00 b1 c4 fe ff 00 00 00 00 00 00 00 00	r2 = 0xfffec4b1 ll
    1732:	7b 2a d8 f9 00 00 00 00	*(u64 *)(r10 - 0x628) = r2
    1733:	7b 1a d0 f9 00 00 00 00	*(u64 *)(r10 - 0x630) = r1
    1734:	72 0a e0 f9 01 00 00 00	*(u8 *)(r10 - 0x620) = 0x1
    1735:	7a 0a c8 f9 00 00 00 00	*(u64 *)(r10 - 0x638) = 0x0
    1736:	bf a1 00 00 00 00 00 00	r1 = r10
    1737:	07 01 00 00 b8 f9 ff ff	r1 += -0x648
    1738:	7b 1a f0 ff 00 00 00 00	*(u64 *)(r10 - 0x10) = r1
    1739:	bf a1 00 00 00 00 00 00	r1 = r10
    1740:	07 01 00 00 f0 f9 ff ff	r1 += -0x610
    1741:	7b 1a e0 ff 00 00 00 00	*(u64 *)(r10 - 0x20) = r1
    1742:	7b 3a d8 ff 00 00 00 00	*(u64 *)(r10 - 0x28) = r3
    1743:	79 a3 b8 f8 00 00 00 00	r3 = *(u64 *)(r10 - 0x748)
    1744:	7b 3a e8 ff 00 00 00 00	*(u64 *)(r10 - 0x18) = r3
    1745:	7a 0a f8 ff 29 00 00 00	*(u64 *)(r10 - 0x8) = 0x29
    1746:	bf a1 00 00 00 00 00 00	r1 = r10
    1747:	07 01 00 00 d8 ff ff ff	r1 += -0x28
    1748:	bf a2 00 00 00 00 00 00	r2 = r10
    1749:	07 02 00 00 40 fb ff ff	r2 += -0x4c0
    1750:	b7 04 00 00 08 00 00 00	r4 = 0x8
    1751:	b7 05 00 00 00 00 00 00	r5 = 0x0
    1752:	85 10 00 00 ff ff ff ff	call -0x1
    1753:	79 a2 48 f9 00 00 00 00	r2 = *(u64 *)(r10 - 0x6b8)
    1754:	1f 62 00 00 00 00 00 00	r2 -= r6
    1755:	07 02 00 00 f0 ff ff ff	r2 += -0x10
    1756:	79 a1 80 f9 00 00 00 00	r1 = *(u64 *)(r10 - 0x680)
    1757:	7b 21 08 00 00 00 00 00	*(u64 *)(r1 + 0x8) = r2
    1758:	7b 81 00 00 00 00 00 00	*(u64 *)(r1 + 0x0) = r8
    1759:	05 00 b6 02 00 00 00 00	goto +0x2b6 <.text+0x4b90>
    1760:	bf 12 00 00 00 00 00 00	r2 = r1
    1761:	07 02 00 00 0b 00 00 00	r2 += 0xb
    1762:	bd 72 05 00 00 00 00 00	if r2 <= r7 goto +0x5 <.text+0x3620>
    1763:	07 01 00 00 0b 00 00 00	r1 += 0xb
    1764:	bf 72 00 00 00 00 00 00	r2 = r7
    1765:	18 03 00 00 10 42 02 00 00 00 00 00 00 00 00 00	r3 = 0x24210 ll
    1767:	85 10 00 00 6b 30 00 00	call 0x306b
    1768:	7b 1a 90 f9 00 00 00 00	*(u64 *)(r10 - 0x670) = r1
    1769:	7b 2a 98 f9 00 00 00 00	*(u64 *)(r10 - 0x668) = r2
    1770:	7b 2a 30 f9 00 00 00 00	*(u64 *)(r10 - 0x6d0) = r2
    1771:	a5 02 02 00 11 00 00 00	if r2 < 0x11 goto +0x2 <.text+0x3650>
    1772:	b7 01 00 00 11 00 00 00	r1 = 0x11
    1773:	7b 1a 98 f9 00 00 00 00	*(u64 *)(r10 - 0x668) = r1
    1774:	7b 5a 58 f9 00 00 00 00	*(u64 *)(r10 - 0x6a8) = r5
    1775:	b7 02 00 00 00 00 00 00	r2 = 0x0
    1776:	79 a4 f8 f8 00 00 00 00	r4 = *(u64 *)(r10 - 0x708)
    1777:	b7 05 00 00 00 00 00 00	r5 = 0x0
    1778:	05 00 42 00 00 00 00 00	goto +0x42 <.text+0x3888>
    1779:	bf a9 00 00 00 00 00 00	r9 = r10
    1780:	07 09 00 00 40 fb ff ff	r9 += -0x4c0
    1781:	0f 29 00 00 00 00 00 00	r9 += r2
    1782:	79 87 50 00 00 00 00 00	r7 = *(u64 *)(r8 + 0x50)
    1783:	bf 80 00 00 00 00 00 00	r0 = r8
    1784:	07 00 00 00 28 00 00 00	r0 += 0x28
    1785:	7b 09 20 00 00 00 00 00	*(u64 *)(r9 + 0x20) = r0
    1786:	bf 80 00 00 00 00 00 00	r0 = r8
    1787:	07 00 00 00 58 00 00 00	r0 += 0x58
    1788:	7b 09 18 00 00 00 00 00	*(u64 *)(r9 + 0x18) = r0
    1789:	7b 79 10 00 00 00 00 00	*(u64 *)(r9 + 0x10) = r7
    1790:	bf 80 00 00 00 00 00 00	r0 = r8
    1791:	07 00 00 00 48 00 00 00	r0 += 0x48
    1792:	7b 09 08 00 00 00 00 00	*(u64 *)(r9 + 0x8) = r0
    1793:	73 39 32 00 00 00 00 00	*(u8 *)(r9 + 0x32) = r3
    1794:	07 08 00 00 08 00 00 00	r8 += 0x8
    1795:	7b 89 00 00 00 00 00 00	*(u64 *)(r9 + 0x0) = r8
    1796:	73 19 31 00 00 00 00 00	*(u8 *)(r9 + 0x31) = r1
    1797:	73 69 30 00 00 00 00 00	*(u8 *)(r9 + 0x30) = r6
    1798:	7a 09 28 00 00 00 00 00	*(u64 *)(r9 + 0x28) = 0x0
    1799:	73 64 00 00 00 00 00 00	*(u8 *)(r4 + 0x0) = r6
    1800:	73 14 ff ff 00 00 00 00	*(u8 *)(r4 - 0x1) = r1
    1801:	7b 84 f7 ff 00 00 00 00	*(u64 *)(r4 - 0x9) = r8
    1802:	07 04 00 00 10 00 00 00	r4 += 0x10
    1803:	79 a9 a0 f9 00 00 00 00	r9 = *(u64 *)(r10 - 0x660)
    1804:	07 09 00 00 08 00 00 00	r9 += 0x8
    1805:	07 02 00 00 38 00 00 00	r2 += 0x38
    1806:	07 05 00 00 01 00 00 00	r5 += 0x1
    1807:	79 a1 98 f9 00 00 00 00	r1 = *(u64 *)(r10 - 0x668)
    1808:	ad 15 24 00 00 00 00 00	if r5 < r1 goto +0x24 <.text+0x3888>
    1809:	79 a1 38 f9 00 00 00 00	r1 = *(u64 *)(r10 - 0x6c8)
    1810:	7b 1a c0 f9 00 00 00 00	*(u64 *)(r10 - 0x640) = r1
    1811:	18 01 00 00 f8 c6 9e 91 00 00 00 00 e1 75 87 c8	r1 = -0x37788a1e6e613908 ll
    1813:	7b 1a b8 f9 00 00 00 00	*(u64 *)(r10 - 0x648) = r1
    1814:	79 a1 f0 f8 00 00 00 00	r1 = *(u64 *)(r10 - 0x710)
    1815:	7a 01 10 00 00 00 00 00	*(u64 *)(r1 + 0x10) = 0x0
    1816:	7a 01 08 00 00 00 00 00	*(u64 *)(r1 + 0x8) = 0x0
    1817:	7a 01 00 00 00 00 00 00	*(u64 *)(r1 + 0x0) = 0x0
    1818:	72 0a e0 f9 01 00 00 00	*(u8 *)(r10 - 0x620) = 0x1
    1819:	bf a1 00 00 00 00 00 00	r1 = r10
    1820:	07 01 00 00 b8 f9 ff ff	r1 += -0x648
    1821:	7b 1a f0 ff 00 00 00 00	*(u64 *)(r10 - 0x10) = r1
    1822:	bf a1 00 00 00 00 00 00	r1 = r10
    1823:	07 01 00 00 f0 f9 ff ff	r1 += -0x610
    1824:	7b 1a e0 ff 00 00 00 00	*(u64 *)(r10 - 0x20) = r1
    1825:	79 a1 10 f9 00 00 00 00	r1 = *(u64 *)(r10 - 0x6f0)
    1826:	7b 1a d8 ff 00 00 00 00	*(u64 *)(r10 - 0x28) = r1
    1827:	79 a3 30 f9 00 00 00 00	r3 = *(u64 *)(r10 - 0x6d0)
    1828:	7b 3a e8 ff 00 00 00 00	*(u64 *)(r10 - 0x18) = r3
    1829:	7a 0a f8 ff 29 00 00 00	*(u64 *)(r10 - 0x8) = 0x29
    1830:	bf a1 00 00 00 00 00 00	r1 = r10
    1831:	07 01 00 00 d8 ff ff ff	r1 += -0x28
    1832:	bf a2 00 00 00 00 00 00	r2 = r10
    1833:	07 02 00 00 40 fb ff ff	r2 += -0x4c0
    1834:	b7 04 00 00 08 00 00 00	r4 = 0x8
    1835:	b7 05 00 00 00 00 00 00	r5 = 0x0
    1836:	85 10 00 00 ff ff ff ff	call -0x1
    1837:	79 a2 48 f9 00 00 00 00	r2 = *(u64 *)(r10 - 0x6b8)
    1838:	79 a1 90 f9 00 00 00 00	r1 = *(u64 *)(r10 - 0x670)
    1839:	1f 12 00 00 00 00 00 00	r2 -= r1
    1840:	07 02 00 00 f4 ff ff ff	r2 += -0xc
    1841:	79 a1 80 f9 00 00 00 00	r1 = *(u64 *)(r10 - 0x680)
    1842:	7b 21 08 00 00 00 00 00	*(u64 *)(r1 + 0x8) = r2
    1843:	79 a2 58 f9 00 00 00 00	r2 = *(u64 *)(r10 - 0x6a8)
    1844:	05 00 60 02 00 00 00 00	goto +0x260 <.text+0x4b88>
    1845:	7b 9a a0 f9 00 00 00 00	*(u64 *)(r10 - 0x660) = r9
    1846:	79 98 00 00 00 00 00 00	r8 = *(u64 *)(r9 + 0x0)
    1847:	71 81 01 00 00 00 00 00	r1 = *(u8 *)(r8 + 0x1)
    1848:	b7 03 00 00 01 00 00 00	r3 = 0x1
    1849:	b7 06 00 00 01 00 00 00	r6 = 0x1
    1850:	55 01 01 00 00 00 00 00	if r1 != 0x0 goto +0x1 <.text+0x38c0>
    1851:	b7 06 00 00 00 00 00 00	r6 = 0x0
    1852:	71 89 02 00 00 00 00 00	r9 = *(u8 *)(r8 + 0x2)
    1853:	b7 01 00 00 01 00 00 00	r1 = 0x1
    1854:	55 09 01 00 00 00 00 00	if r9 != 0x0 goto +0x1 <.text+0x38e0>
    1855:	b7 01 00 00 00 00 00 00	r1 = 0x0
    1856:	71 89 03 00 00 00 00 00	r9 = *(u8 *)(r8 + 0x3)
    1857:	55 09 b1 ff 00 00 00 00	if r9 != 0x0 goto -0x4f <.text+0x3678>
    1858:	b7 03 00 00 00 00 00 00	r3 = 0x0
    1859:	05 00 af ff 00 00 00 00	goto -0x51 <.text+0x3678>
    1860:	79 a1 48 f9 00 00 00 00	r1 = *(u64 *)(r10 - 0x6b8)
    1861:	b7 00 00 00 73 17 00 00	r0 = 0x1773
    1862:	a5 01 11 03 0e 00 00 00	if r1 < 0xe goto +0x311 <.text+0x51a0>
    1863:	b7 01 00 00 00 00 00 00	r1 = 0x0
    1864:	79 a2 e8 f8 00 00 00 00	r2 = *(u64 *)(r10 - 0x718)
    1865:	05 00 1c 00 00 00 00 00	goto +0x1c <.text+0x3a10>
    1866:	bf a6 00 00 00 00 00 00	r6 = r10
    1867:	07 06 00 00 40 fb ff ff	r6 += -0x4c0
    1868:	0f 16 00 00 00 00 00 00	r6 += r1
    1869:	79 38 50 00 00 00 00 00	r8 = *(u64 *)(r3 + 0x50)
    1870:	bf 39 00 00 00 00 00 00	r9 = r3
    1871:	07 09 00 00 28 00 00 00	r9 += 0x28
    1872:	7b 96 20 00 00 00 00 00	*(u64 *)(r6 + 0x20) = r9
    1873:	bf 39 00 00 00 00 00 00	r9 = r3
    1874:	07 09 00 00 58 00 00 00	r9 += 0x58
    1875:	7b 96 18 00 00 00 00 00	*(u64 *)(r6 + 0x18) = r9
    1876:	7b 86 10 00 00 00 00 00	*(u64 *)(r6 + 0x10) = r8
    1877:	bf 38 00 00 00 00 00 00	r8 = r3
    1878:	07 08 00 00 48 00 00 00	r8 += 0x48
    1879:	7b 86 08 00 00 00 00 00	*(u64 *)(r6 + 0x8) = r8
    1880:	73 06 32 00 00 00 00 00	*(u8 *)(r6 + 0x32) = r0
    1881:	07 03 00 00 08 00 00 00	r3 += 0x8
    1882:	7b 36 00 00 00 00 00 00	*(u64 *)(r6 + 0x0) = r3
    1883:	73 56 31 00 00 00 00 00	*(u8 *)(r6 + 0x31) = r5
    1884:	73 46 30 00 00 00 00 00	*(u8 *)(r6 + 0x30) = r4
    1885:	7a 06 28 00 00 00 00 00	*(u64 *)(r6 + 0x28) = 0x0
    1886:	73 42 00 00 00 00 00 00	*(u8 *)(r2 + 0x0) = r4
    1887:	73 52 ff ff 00 00 00 00	*(u8 *)(r2 - 0x1) = r5
    1888:	7b 32 f7 ff 00 00 00 00	*(u64 *)(r2 - 0x9) = r3
    1889:	07 02 00 00 10 00 00 00	r2 += 0x10
    1890:	bf 79 00 00 00 00 00 00	r9 = r7
    1891:	07 09 00 00 08 00 00 00	r9 += 0x8
    1892:	07 01 00 00 38 00 00 00	r1 += 0x38
    1893:	15 01 0f 00 d8 02 00 00	if r1 == 0x2d8 goto +0xf <.text+0x3a88>
    1894:	79 93 00 00 00 00 00 00	r3 = *(u64 *)(r9 + 0x0)
    1895:	71 35 01 00 00 00 00 00	r5 = *(u8 *)(r3 + 0x1)
    1896:	b7 00 00 00 01 00 00 00	r0 = 0x1
    1897:	b7 04 00 00 01 00 00 00	r4 = 0x1
    1898:	55 05 01 00 00 00 00 00	if r5 != 0x0 goto +0x1 <.text+0x3a40>
    1899:	b7 04 00 00 00 00 00 00	r4 = 0x0
    1900:	71 36 02 00 00 00 00 00	r6 = *(u8 *)(r3 + 0x2)
    1901:	b7 05 00 00 01 00 00 00	r5 = 0x1
    1902:	55 06 01 00 00 00 00 00	if r6 != 0x0 goto +0x1 <.text+0x3a60>
    1903:	b7 05 00 00 00 00 00 00	r5 = 0x0
    1904:	bf 97 00 00 00 00 00 00	r7 = r9
    1905:	71 36 03 00 00 00 00 00	r6 = *(u8 *)(r3 + 0x3)
    1906:	55 06 d7 ff 00 00 00 00	if r6 != 0x0 goto -0x29 <.text+0x3930>
    1907:	b7 00 00 00 00 00 00 00	r0 = 0x0
    1908:	05 00 d5 ff 00 00 00 00	goto -0x2b <.text+0x3930>
    1909:	79 a1 38 f9 00 00 00 00	r1 = *(u64 *)(r10 - 0x6c8)
    1910:	7b 1a e0 ff 00 00 00 00	*(u64 *)(r10 - 0x20) = r1
    1911:	18 01 00 00 8f be 5a da 00 00 00 00 c4 1e 33 de	r1 = -0x21cce13b25a54171 ll
    1913:	7b 1a d8 ff 00 00 00 00	*(u64 *)(r10 - 0x28) = r1
    1914:	7a 0a e8 ff 00 00 00 00	*(u64 *)(r10 - 0x18) = 0x0
    1915:	bf a1 00 00 00 00 00 00	r1 = r10
    1916:	07 01 00 00 d8 ff ff ff	r1 += -0x28
    1917:	7b 1a d0 f9 00 00 00 00	*(u64 *)(r10 - 0x630) = r1
    1918:	bf a1 00 00 00 00 00 00	r1 = r10
    1919:	07 01 00 00 f0 f9 ff ff	r1 += -0x610
    1920:	7b 1a c0 f9 00 00 00 00	*(u64 *)(r10 - 0x640) = r1
    1921:	79 a1 10 f9 00 00 00 00	r1 = *(u64 *)(r10 - 0x6f0)
    1922:	7b 1a b8 f9 00 00 00 00	*(u64 *)(r10 - 0x648) = r1
    1923:	7a 0a d8 f9 18 00 00 00	*(u64 *)(r10 - 0x628) = 0x18
    1924:	7a 0a c8 f9 0d 00 00 00	*(u64 *)(r10 - 0x638) = 0xd
    1925:	bf a1 00 00 00 00 00 00	r1 = r10
    1926:	07 01 00 00 b8 f9 ff ff	r1 += -0x648
    1927:	bf a2 00 00 00 00 00 00	r2 = r10
    1928:	07 02 00 00 40 fb ff ff	r2 += -0x4c0
    1929:	b7 03 00 00 0d 00 00 00	r3 = 0xd
    1930:	b7 04 00 00 08 00 00 00	r4 = 0x8
    1931:	b7 05 00 00 00 00 00 00	r5 = 0x0
    1932:	85 10 00 00 ff ff ff ff	call -0x1
    1933:	79 a2 48 f9 00 00 00 00	r2 = *(u64 *)(r10 - 0x6b8)
    1934:	07 02 00 00 f2 ff ff ff	r2 += -0xe
    1935:	79 a1 80 f9 00 00 00 00	r1 = *(u64 *)(r10 - 0x680)
    1936:	7b 21 08 00 00 00 00 00	*(u64 *)(r1 + 0x8) = r2
    1937:	79 a2 58 f9 00 00 00 00	r2 = *(u64 *)(r10 - 0x6a8)
    1938:	07 02 00 00 70 00 00 00	r2 += 0x70
    1939:	05 00 01 02 00 00 00 00	goto +0x201 <.text+0x4b88>
    1940:	b7 00 00 00 77 17 00 00	r0 = 0x1777
    1941:	79 a1 b0 f9 00 00 00 00	r1 = *(u64 *)(r10 - 0x650)
    1942:	79 a4 30 f9 00 00 00 00	r4 = *(u64 *)(r10 - 0x6d0)
    1943:	15 01 c0 02 00 00 00 00	if r1 == 0x0 goto +0x2c0 <.text+0x51a0>
    1944:	79 a2 a8 f9 00 00 00 00	r2 = *(u64 *)(r10 - 0x658)
    1945:	71 23 00 00 00 00 00 00	r3 = *(u8 *)(r2 + 0x0)
    1946:	b7 08 00 00 0e 00 00 00	r8 = 0xe
    1947:	15 03 01 00 00 00 00 00	if r3 == 0x0 goto +0x1 <.text+0x3bc8>
    1948:	b7 08 00 00 0f 00 00 00	r8 = 0xf
    1949:	07 01 00 00 ff ff ff ff	r1 += -0x1
    1950:	7b 1a b0 f9 00 00 00 00	*(u64 *)(r10 - 0x650) = r1
    1951:	07 02 00 00 01 00 00 00	r2 += 0x1
    1952:	7b 2a a8 f9 00 00 00 00	*(u64 *)(r10 - 0x658) = r2
    1953:	b7 00 00 00 73 17 00 00	r0 = 0x1773
    1954:	ad 84 b5 02 00 00 00 00	if r4 < r8 goto +0x2b5 <.text+0x51a0>
    1955:	b7 01 00 00 00 00 00 00	r1 = 0x0
    1956:	79 a2 e0 f8 00 00 00 00	r2 = *(u64 *)(r10 - 0x720)
    1957:	7b 9a a0 f9 00 00 00 00	*(u64 *)(r10 - 0x660) = r9
    1958:	bf 93 00 00 00 00 00 00	r3 = r9
    1959:	b7 04 00 00 00 00 00 00	r4 = 0x0
    1960:	7b 8a 90 f9 00 00 00 00	*(u64 *)(r10 - 0x670) = r8
    1961:	05 00 20 00 00 00 00 00	goto +0x20 <.text+0x3d30>
    1962:	bf a9 00 00 00 00 00 00	r9 = r10
    1963:	07 09 00 00 40 fb ff ff	r9 += -0x4c0
    1964:	0f 19 00 00 00 00 00 00	r9 += r1
    1965:	79 08 50 00 00 00 00 00	r8 = *(u64 *)(r0 + 0x50)
    1966:	bf 57 00 00 00 00 00 00	r7 = r5
    1967:	bf 05 00 00 00 00 00 00	r5 = r0
    1968:	07 05 00 00 28 00 00 00	r5 += 0x28
    1969:	7b 59 20 00 00 00 00 00	*(u64 *)(r9 + 0x20) = r5
    1970:	bf 05 00 00 00 00 00 00	r5 = r0
    1971:	07 05 00 00 58 00 00 00	r5 += 0x58
    1972:	7b 59 18 00 00 00 00 00	*(u64 *)(r9 + 0x18) = r5
    1973:	7b 89 10 00 00 00 00 00	*(u64 *)(r9 + 0x10) = r8
    1974:	bf 05 00 00 00 00 00 00	r5 = r0
    1975:	07 05 00 00 48 00 00 00	r5 += 0x48
    1976:	7b 59 08 00 00 00 00 00	*(u64 *)(r9 + 0x8) = r5
    1977:	73 79 32 00 00 00 00 00	*(u8 *)(r9 + 0x32) = r7
    1978:	07 00 00 00 08 00 00 00	r0 += 0x8
    1979:	7b 09 00 00 00 00 00 00	*(u64 *)(r9 + 0x0) = r0
    1980:	73 69 31 00 00 00 00 00	*(u8 *)(r9 + 0x31) = r6
    1981:	79 a7 98 f9 00 00 00 00	r7 = *(u64 *)(r10 - 0x668)
    1982:	73 79 30 00 00 00 00 00	*(u8 *)(r9 + 0x30) = r7
    1983:	7a 09 28 00 00 00 00 00	*(u64 *)(r9 + 0x28) = 0x0
    1984:	73 72 00 00 00 00 00 00	*(u8 *)(r2 + 0x0) = r7
    1985:	73 62 ff ff 00 00 00 00	*(u8 *)(r2 - 0x1) = r6
    1986:	7b 02 f7 ff 00 00 00 00	*(u64 *)(r2 - 0x9) = r0
    1987:	07 02 00 00 10 00 00 00	r2 += 0x10
    1988:	07 03 00 00 08 00 00 00	r3 += 0x8
    1989:	07 01 00 00 38 00 00 00	r1 += 0x38
    1990:	07 04 00 00 01 00 00 00	r4 += 0x1
    1991:	79 a8 90 f9 00 00 00 00	r8 = *(u64 *)(r10 - 0x670)
    1992:	ad 84 01 00 00 00 00 00	if r4 < r8 goto +0x1 <.text+0x3d30>
    1993:	05 00 ac 01 00 00 00 00	goto +0x1ac <.text+0x4a90>
    1994:	79 30 00 00 00 00 00 00	r0 = *(u64 *)(r3 + 0x0)
    1995:	71 06 01 00 00 00 00 00	r6 = *(u8 *)(r0 + 0x1)
    1996:	b7 05 00 00 01 00 00 00	r5 = 0x1
    1997:	b7 07 00 00 01 00 00 00	r7 = 0x1
    1998:	55 06 01 00 00 00 00 00	if r6 != 0x0 goto +0x1 <.text+0x3d60>
    1999:	b7 07 00 00 00 00 00 00	r7 = 0x0
    2000:	71 09 02 00 00 00 00 00	r9 = *(u8 *)(r0 + 0x2)
    2001:	b7 06 00 00 01 00 00 00	r6 = 0x1
    2002:	55 09 01 00 00 00 00 00	if r9 != 0x0 goto +0x1 <.text+0x3d80>
    2003:	b7 06 00 00 00 00 00 00	r6 = 0x0
    2004:	7b 7a 98 f9 00 00 00 00	*(u64 *)(r10 - 0x668) = r7
    2005:	71 09 03 00 00 00 00 00	r9 = *(u8 *)(r0 + 0x3)
    2006:	55 09 d3 ff 00 00 00 00	if r9 != 0x0 goto -0x2d <.text+0x3c30>
    2007:	b7 05 00 00 00 00 00 00	r5 = 0x0
    2008:	05 00 d1 ff 00 00 00 00	goto -0x2f <.text+0x3c30>
    2009:	79 a1 48 f9 00 00 00 00	r1 = *(u64 *)(r10 - 0x6b8)
    2010:	79 a4 58 f9 00 00 00 00	r4 = *(u64 *)(r10 - 0x6a8)
    2011:	b7 00 00 00 73 17 00 00	r0 = 0x1773
    2012:	a5 01 7b 02 11 00 00 00	if r1 < 0x11 goto +0x27b <.text+0x51a0>
    2013:	79 a1 50 f9 00 00 00 00	r1 = *(u64 *)(r10 - 0x6b0)
    2014:	67 01 00 00 03 00 00 00	r1 <<= 0x3
    2015:	79 a2 78 f9 00 00 00 00	r2 = *(u64 *)(r10 - 0x688)
    2016:	0f 12 00 00 00 00 00 00	r2 += r1
    2017:	79 22 00 00 00 00 00 00	r2 = *(u64 *)(r2 + 0x0)
    2018:	79 23 50 00 00 00 00 00	r3 = *(u64 *)(r2 + 0x50)
    2019:	25 03 05 00 1f 00 00 00	if r3 > 0x1f goto +0x5 <.text+0x3e28>
    2020:	b7 01 00 00 20 00 00 00	r1 = 0x20
    2021:	bf 32 00 00 00 00 00 00	r2 = r3
    2022:	18 03 00 00 f8 41 02 00 00 00 00 00 00 00 00 00	r3 = 0x241f8 ll
    2024:	85 10 00 00 6a 2f 00 00	call 0x2f6a
    2025:	79 41 28 00 00 00 00 00	r1 = *(u64 *)(r4 + 0x28)
    2026:	79 13 50 00 00 00 00 00	r3 = *(u64 *)(r1 + 0x50)
    2027:	25 03 05 00 84 00 00 00	if r3 > 0x84 goto +0x5 <.text+0x3e68>
    2028:	b7 01 00 00 85 00 00 00	r1 = 0x85
    2029:	bf 32 00 00 00 00 00 00	r2 = r3
    2030:	18 03 00 00 70 42 02 00 00 00 00 00 00 00 00 00	r3 = 0x24270 ll
    2032:	85 10 00 00 62 2f 00 00	call 0x2f62
    2033:	07 01 00 00 bd 00 00 00	r1 += 0xbd
    2034:	07 02 00 00 58 00 00 00	r2 += 0x58
    2035:	b7 03 00 00 20 00 00 00	r3 = 0x20
    2036:	85 10 00 00 9a 34 00 00	call 0x349a
    2037:	7b 0a a0 f9 00 00 00 00	*(u64 *)(r10 - 0x660) = r0
    2038:	b7 01 00 00 00 00 00 00	r1 = 0x0
    2039:	79 a2 d8 f8 00 00 00 00	r2 = *(u64 *)(r10 - 0x728)
    2040:	05 00 1c 00 00 00 00 00	goto +0x1c <.text+0x3f88>
    2041:	bf a8 00 00 00 00 00 00	r8 = r10
    2042:	07 08 00 00 40 fb ff ff	r8 += -0x4c0
    2043:	0f 18 00 00 00 00 00 00	r8 += r1
    2044:	79 69 50 00 00 00 00 00	r9 = *(u64 *)(r6 + 0x50)
    2045:	bf 63 00 00 00 00 00 00	r3 = r6
    2046:	07 03 00 00 28 00 00 00	r3 += 0x28
    2047:	7b 38 20 00 00 00 00 00	*(u64 *)(r8 + 0x20) = r3
    2048:	bf 63 00 00 00 00 00 00	r3 = r6
    2049:	07 03 00 00 58 00 00 00	r3 += 0x58
    2050:	7b 38 18 00 00 00 00 00	*(u64 *)(r8 + 0x18) = r3
    2051:	7b 98 10 00 00 00 00 00	*(u64 *)(r8 + 0x10) = r9
    2052:	bf 63 00 00 00 00 00 00	r3 = r6
    2053:	07 03 00 00 48 00 00 00	r3 += 0x48
    2054:	7b 38 08 00 00 00 00 00	*(u64 *)(r8 + 0x8) = r3
    2055:	73 08 32 00 00 00 00 00	*(u8 *)(r8 + 0x32) = r0
    2056:	07 06 00 00 08 00 00 00	r6 += 0x8
    2057:	7b 68 00 00 00 00 00 00	*(u64 *)(r8 + 0x0) = r6
    2058:	73 58 31 00 00 00 00 00	*(u8 *)(r8 + 0x31) = r5
    2059:	73 48 30 00 00 00 00 00	*(u8 *)(r8 + 0x30) = r4
    2060:	7a 08 28 00 00 00 00 00	*(u64 *)(r8 + 0x28) = 0x0
    2061:	73 42 00 00 00 00 00 00	*(u8 *)(r2 + 0x0) = r4
    2062:	73 52 ff ff 00 00 00 00	*(u8 *)(r2 - 0x1) = r5
    2063:	7b 62 f7 ff 00 00 00 00	*(u64 *)(r2 - 0x9) = r6
    2064:	07 02 00 00 10 00 00 00	r2 += 0x10
    2065:	bf 79 00 00 00 00 00 00	r9 = r7
    2066:	07 09 00 00 08 00 00 00	r9 += 0x8
    2067:	07 01 00 00 38 00 00 00	r1 += 0x38
    2068:	15 01 0f 00 80 03 00 00	if r1 == 0x380 goto +0xf <.text+0x4000>
    2069:	79 96 00 00 00 00 00 00	r6 = *(u64 *)(r9 + 0x0)
    2070:	71 65 01 00 00 00 00 00	r5 = *(u8 *)(r6 + 0x1)
    2071:	b7 00 00 00 01 00 00 00	r0 = 0x1
    2072:	b7 04 00 00 01 00 00 00	r4 = 0x1
    2073:	55 05 01 00 00 00 00 00	if r5 != 0x0 goto +0x1 <.text+0x3fb8>
    2074:	b7 04 00 00 00 00 00 00	r4 = 0x0
    2075:	71 68 02 00 00 00 00 00	r8 = *(u8 *)(r6 + 0x2)
    2076:	b7 05 00 00 01 00 00 00	r5 = 0x1
    2077:	55 08 01 00 00 00 00 00	if r8 != 0x0 goto +0x1 <.text+0x3fd8>
    2078:	b7 05 00 00 00 00 00 00	r5 = 0x0
    2079:	bf 97 00 00 00 00 00 00	r7 = r9
    2080:	71 68 03 00 00 00 00 00	r8 = *(u8 *)(r6 + 0x3)
    2081:	55 08 d7 ff 00 00 00 00	if r8 != 0x0 goto -0x29 <.text+0x3ea8>
    2082:	b7 00 00 00 00 00 00 00	r0 = 0x0
    2083:	05 00 d5 ff 00 00 00 00	goto -0x2b <.text+0x3ea8>
    2084:	79 a3 a0 f9 00 00 00 00	r3 = *(u64 *)(r10 - 0x660)
    2085:	67 03 00 00 20 00 00 00	r3 <<= 0x20
    2086:	77 03 00 00 20 00 00 00	r3 >>= 0x20
    2087:	18 01 00 00 50 3b 01 00 00 00 00 00 01 00 00 00	r1 = 0x100013b50 ll
    2089:	79 a7 10 f9 00 00 00 00	r7 = *(u64 *)(r10 - 0x6f0)
    2090:	15 03 02 00 00 00 00 00	if r3 == 0x0 goto +0x2 <.text+0x4048>
    2091:	18 01 00 00 af 33 1b a8 00 00 00 00 32 7f bb 35	r1 = 0x35bb7f32a81b33af ll
    2093:	79 a2 38 f9 00 00 00 00	r2 = *(u64 *)(r10 - 0x6c8)
    2094:	7b 2a c0 f9 00 00 00 00	*(u64 *)(r10 - 0x640) = r2
    2095:	18 02 00 00 2b 04 ed 0b 00 00 00 00 1a c9 1e 62	r2 = 0x621ec91a0bed042b ll
    2097:	7b 2a b8 f9 00 00 00 00	*(u64 *)(r10 - 0x648) = r2
    2098:	b7 02 00 00 00 00 00 00	r2 = 0x0
    2099:	15 03 02 00 00 00 00 00	if r3 == 0x0 goto +0x2 <.text+0x4090>
    2100:	18 02 00 00 b1 c4 fe ff 00 00 00 00 00 00 00 00	r2 = 0xfffec4b1 ll
    2102:	7b 2a d8 f9 00 00 00 00	*(u64 *)(r10 - 0x628) = r2
    2103:	7b 1a d0 f9 00 00 00 00	*(u64 *)(r10 - 0x630) = r1
    2104:	b7 01 00 00 01 00 00 00	r1 = 0x1
    2105:	15 03 01 00 00 00 00 00	if r3 == 0x0 goto +0x1 <.text+0x40b8>
    2106:	b7 01 00 00 00 00 00 00	r1 = 0x0
    2107:	73 1a e1 f9 00 00 00 00	*(u8 *)(r10 - 0x61f) = r1
    2108:	6a 0a e7 f9 06 01 00 00	*(u16 *)(r10 - 0x619) = 0x106
    2109:	62 0a e3 f9 01 00 00 00	*(u32 *)(r10 - 0x61d) = 0x1
    2110:	72 0a e2 f9 01 00 00 00	*(u8 *)(r10 - 0x61e) = 0x1
    2111:	72 0a e0 f9 01 00 00 00	*(u8 *)(r10 - 0x620) = 0x1
    2112:	7a 0a c8 f9 00 00 00 00	*(u64 *)(r10 - 0x638) = 0x0
    2113:	bf a1 00 00 00 00 00 00	r1 = r10
    2114:	07 01 00 00 b8 f9 ff ff	r1 += -0x648
    2115:	7b 1a f0 ff 00 00 00 00	*(u64 *)(r10 - 0x10) = r1
    2116:	bf a1 00 00 00 00 00 00	r1 = r10
    2117:	07 01 00 00 f0 f9 ff ff	r1 += -0x610
    2118:	7b 1a e0 ff 00 00 00 00	*(u64 *)(r10 - 0x20) = r1
    2119:	7b 7a d8 ff 00 00 00 00	*(u64 *)(r10 - 0x28) = r7
    2120:	7a 0a f8 ff 31 00 00 00	*(u64 *)(r10 - 0x8) = 0x31
    2121:	7a 0a e8 ff 10 00 00 00	*(u64 *)(r10 - 0x18) = 0x10
    2122:	bf a1 00 00 00 00 00 00	r1 = r10
    2123:	07 01 00 00 d8 ff ff ff	r1 += -0x28
    2124:	bf a2 00 00 00 00 00 00	r2 = r10
    2125:	07 02 00 00 40 fb ff ff	r2 += -0x4c0
    2126:	b7 03 00 00 10 00 00 00	r3 = 0x10
    2127:	b7 04 00 00 08 00 00 00	r4 = 0x8
    2128:	b7 05 00 00 00 00 00 00	r5 = 0x0
    2129:	85 10 00 00 ff ff ff ff	call -0x1
    2130:	79 a2 48 f9 00 00 00 00	r2 = *(u64 *)(r10 - 0x6b8)
    2131:	07 02 00 00 ef ff ff ff	r2 += -0x11
    2132:	79 a1 80 f9 00 00 00 00	r1 = *(u64 *)(r10 - 0x680)
    2133:	7b 21 08 00 00 00 00 00	*(u64 *)(r1 + 0x8) = r2
    2134:	79 a2 58 f9 00 00 00 00	r2 = *(u64 *)(r10 - 0x6a8)
    2135:	07 02 00 00 88 00 00 00	r2 += 0x88
    2136:	05 00 3c 01 00 00 00 00	goto +0x13c <.text+0x4b88>
    2137:	79 a1 50 f9 00 00 00 00	r1 = *(u64 *)(r10 - 0x6b0)
    2138:	67 01 00 00 03 00 00 00	r1 <<= 0x3
    2139:	79 a2 78 f9 00 00 00 00	r2 = *(u64 *)(r10 - 0x688)
    2140:	0f 12 00 00 00 00 00 00	r2 += r1
    2141:	79 24 00 00 00 00 00 00	r4 = *(u64 *)(r2 + 0x0)
    2142:	bf a5 00 00 00 00 00 00	r5 = r10
    2143:	07 05 00 00 a8 f9 ff ff	r5 += -0x658
    2144:	bf 71 00 00 00 00 00 00	r1 = r7
    2145:	79 a2 80 f9 00 00 00 00	r2 = *(u64 *)(r10 - 0x680)
    2146:	79 a3 38 f9 00 00 00 00	r3 = *(u64 *)(r10 - 0x6c8)
    2147:	85 10 00 00 60 02 00 00	call 0x260
    2148:	bf 01 00 00 00 00 00 00	r1 = r0
    2149:	67 01 00 00 20 00 00 00	r1 <<= 0x20
    2150:	77 01 00 00 20 00 00 00	r1 >>= 0x20
    2151:	15 01 2e 01 6f 17 00 00	if r1 == 0x176f goto +0x12e <.text+0x4b90>
    2152:	05 00 ef 01 00 00 00 00	goto +0x1ef <.text+0x51a0>
    2153:	79 a1 48 f9 00 00 00 00	r1 = *(u64 *)(r10 - 0x6b8)
    2154:	79 a4 58 f9 00 00 00 00	r4 = *(u64 *)(r10 - 0x6a8)
    2155:	79 a2 30 f9 00 00 00 00	r2 = *(u64 *)(r10 - 0x6d0)
    2156:	b7 00 00 00 73 17 00 00	r0 = 0x1773
    2157:	a5 01 ea 01 12 00 00 00	if r1 < 0x12 goto +0x1ea <.text+0x51a0>
    2158:	b7 01 00 00 11 00 00 00	r1 = 0x11
    2159:	18 03 00 00 5c 8e 5c dc 00 00 00 00 05 94 46 b5	r3 = -0x4ab96bfa23a371a4 ll
    2161:	15 02 0c 00 11 00 00 00	if r2 == 0x11 goto +0xc <.text+0x42d0>
    2162:	07 04 00 00 90 00 00 00	r4 += 0x90
    2163:	79 40 00 00 00 00 00 00	r0 = *(u64 *)(r4 + 0x0)
    2164:	79 05 50 00 00 00 00 00	r5 = *(u64 *)(r0 + 0x50)
    2165:	a5 05 08 00 08 00 00 00	if r5 < 0x8 goto +0x8 <.text+0x42d0>
    2166:	79 05 58 00 00 00 00 00	r5 = *(u64 *)(r0 + 0x58)
    2167:	1d 35 01 00 00 00 00 00	if r5 == r3 goto +0x1 <.text+0x42a8>
    2168:	05 00 05 00 00 00 00 00	goto +0x5 <.text+0x42d0>
    2169:	07 04 00 00 08 00 00 00	r4 += 0x8
    2170:	07 01 00 00 01 00 00 00	r1 += 0x1
    2171:	ad 21 f7 ff 00 00 00 00	if r1 < r2 goto -0x9 <.text+0x4278>
    2172:	bf 21 00 00 00 00 00 00	r1 = r2
    2173:	05 00 01 00 00 00 00 00	goto +0x1 <.text+0x42d8>
    2174:	2d 21 f3 01 00 00 00 00	if r1 > r2 goto +0x1f3 <.text+0x5270>
    2175:	7b 1a 90 f9 00 00 00 00	*(u64 *)(r10 - 0x670) = r1
    2176:	7b 1a 58 f9 00 00 00 00	*(u64 *)(r10 - 0x6a8) = r1
    2177:	a5 01 02 00 14 00 00 00	if r1 < 0x14 goto +0x2 <.text+0x4300>
    2178:	b7 01 00 00 14 00 00 00	r1 = 0x14
    2179:	7b 1a 90 f9 00 00 00 00	*(u64 *)(r10 - 0x670) = r1
    2180:	b7 02 00 00 00 00 00 00	r2 = 0x0
    2181:	79 a3 d0 f8 00 00 00 00	r3 = *(u64 *)(r10 - 0x730)
    2182:	7b 9a a0 f9 00 00 00 00	*(u64 *)(r10 - 0x660) = r9
    2183:	bf 94 00 00 00 00 00 00	r4 = r9
    2184:	b7 05 00 00 00 00 00 00	r5 = 0x0
    2185:	05 00 20 00 00 00 00 00	goto +0x20 <.text+0x4430>
    2186:	bf a9 00 00 00 00 00 00	r9 = r10
    2187:	07 09 00 00 40 fb ff ff	r9 += -0x4c0
    2188:	0f 29 00 00 00 00 00 00	r9 += r2
    2189:	bf 17 00 00 00 00 00 00	r7 = r1
    2190:	79 81 50 00 00 00 00 00	r1 = *(u64 *)(r8 + 0x50)
    2191:	bf 80 00 00 00 00 00 00	r0 = r8
    2192:	07 00 00 00 28 00 00 00	r0 += 0x28
    2193:	7b 09 20 00 00 00 00 00	*(u64 *)(r9 + 0x20) = r0
    2194:	bf 80 00 00 00 00 00 00	r0 = r8
    2195:	07 00 00 00 58 00 00 00	r0 += 0x58
    2196:	7b 09 18 00 00 00 00 00	*(u64 *)(r9 + 0x18) = r0
    2197:	7b 19 10 00 00 00 00 00	*(u64 *)(r9 + 0x10) = r1
    2198:	bf 81 00 00 00 00 00 00	r1 = r8
    2199:	07 01 00 00 48 00 00 00	r1 += 0x48
    2200:	7b 19 08 00 00 00 00 00	*(u64 *)(r9 + 0x8) = r1
    2201:	73 79 32 00 00 00 00 00	*(u8 *)(r9 + 0x32) = r7
    2202:	07 08 00 00 08 00 00 00	r8 += 0x8
    2203:	7b 89 00 00 00 00 00 00	*(u64 *)(r9 + 0x0) = r8
    2204:	73 69 31 00 00 00 00 00	*(u8 *)(r9 + 0x31) = r6
    2205:	79 a7 98 f9 00 00 00 00	r7 = *(u64 *)(r10 - 0x668)
    2206:	73 79 30 00 00 00 00 00	*(u8 *)(r9 + 0x30) = r7
    2207:	7a 09 28 00 00 00 00 00	*(u64 *)(r9 + 0x28) = 0x0
    2208:	73 73 00 00 00 00 00 00	*(u8 *)(r3 + 0x0) = r7
    2209:	73 63 ff ff 00 00 00 00	*(u8 *)(r3 - 0x1) = r6
    2210:	7b 83 f7 ff 00 00 00 00	*(u64 *)(r3 - 0x9) = r8
    2211:	07 03 00 00 10 00 00 00	r3 += 0x10
    2212:	07 04 00 00 08 00 00 00	r4 += 0x8
    2213:	07 02 00 00 38 00 00 00	r2 += 0x38
    2214:	07 05 00 00 01 00 00 00	r5 += 0x1
    2215:	79 a1 90 f9 00 00 00 00	r1 = *(u64 *)(r10 - 0x670)
    2216:	ad 15 01 00 00 00 00 00	if r5 < r1 goto +0x1 <.text+0x4430>
    2217:	05 00 0f 00 00 00 00 00	goto +0xf <.text+0x44a8>
    2218:	79 48 00 00 00 00 00 00	r8 = *(u64 *)(r4 + 0x0)
    2219:	71 86 01 00 00 00 00 00	r6 = *(u8 *)(r8 + 0x1)
    2220:	b7 01 00 00 01 00 00 00	r1 = 0x1
    2221:	b7 07 00 00 01 00 00 00	r7 = 0x1
    2222:	55 06 01 00 00 00 00 00	if r6 != 0x0 goto +0x1 <.text+0x4460>
    2223:	b7 07 00 00 00 00 00 00	r7 = 0x0
    2224:	71 89 02 00 00 00 00 00	r9 = *(u8 *)(r8 + 0x2)
    2225:	b7 06 00 00 01 00 00 00	r6 = 0x1
    2226:	55 09 01 00 00 00 00 00	if r9 != 0x0 goto +0x1 <.text+0x4480>
    2227:	b7 06 00 00 00 00 00 00	r6 = 0x0
    2228:	7b 7a 98 f9 00 00 00 00	*(u64 *)(r10 - 0x668) = r7
    2229:	71 89 03 00 00 00 00 00	r9 = *(u8 *)(r8 + 0x3)
    2230:	55 09 d3 ff 00 00 00 00	if r9 != 0x0 goto -0x2d <.text+0x4330>
    2231:	b7 01 00 00 00 00 00 00	r1 = 0x0
    2232:	05 00 d1 ff 00 00 00 00	goto -0x2f <.text+0x4330>
    2233:	79 a1 38 f9 00 00 00 00	r1 = *(u64 *)(r10 - 0x6c8)
    2234:	7b 1a e0 ff 00 00 00 00	*(u64 *)(r10 - 0x20) = r1
    2235:	18 01 00 00 41 4b 3f 4c 00 00 00 00 eb 5b 5b 88	r1 = -0x77a4a414b3c0b4bf ll
    2237:	7b 1a d8 ff 00 00 00 00	*(u64 *)(r10 - 0x28) = r1
    2238:	62 0a f0 ff 00 00 00 00	*(u32 *)(r10 - 0x10) = 0x0
    2239:	7a 0a e8 ff 00 00 00 00	*(u64 *)(r10 - 0x18) = 0x0
    2240:	bf a1 00 00 00 00 00 00	r1 = r10
    2241:	07 01 00 00 d8 ff ff ff	r1 += -0x28
    2242:	7b 1a d0 f9 00 00 00 00	*(u64 *)(r10 - 0x630) = r1
    2243:	bf a1 00 00 00 00 00 00	r1 = r10
    2244:	07 01 00 00 f0 f9 ff ff	r1 += -0x610
    2245:	7b 1a c0 f9 00 00 00 00	*(u64 *)(r10 - 0x640) = r1
    2246:	79 a1 10 f9 00 00 00 00	r1 = *(u64 *)(r10 - 0x6f0)
    2247:	7b 1a b8 f9 00 00 00 00	*(u64 *)(r10 - 0x648) = r1
    2248:	79 a6 58 f9 00 00 00 00	r6 = *(u64 *)(r10 - 0x6a8)
    2249:	7b 6a c8 f9 00 00 00 00	*(u64 *)(r10 - 0x638) = r6
    2250:	7a 0a d8 f9 1c 00 00 00	*(u64 *)(r10 - 0x628) = 0x1c
    2251:	bf a1 00 00 00 00 00 00	r1 = r10
    2252:	07 01 00 00 b8 f9 ff ff	r1 += -0x648
    2253:	bf a2 00 00 00 00 00 00	r2 = r10
    2254:	07 02 00 00 40 fb ff ff	r2 += -0x4c0
    2255:	bf 63 00 00 00 00 00 00	r3 = r6
    2256:	b7 04 00 00 08 00 00 00	r4 = 0x8
    2257:	b7 05 00 00 00 00 00 00	r5 = 0x0
    2258:	85 10 00 00 ff ff ff ff	call -0x1
    2259:	79 a2 30 f9 00 00 00 00	r2 = *(u64 *)(r10 - 0x6d0)
    2260:	1f 62 00 00 00 00 00 00	r2 -= r6
    2261:	79 a1 80 f9 00 00 00 00	r1 = *(u64 *)(r10 - 0x680)
    2262:	7b 21 08 00 00 00 00 00	*(u64 *)(r1 + 0x8) = r2
    2263:	67 06 00 00 03 00 00 00	r6 <<= 0x3
    2264:	79 a2 a0 f9 00 00 00 00	r2 = *(u64 *)(r10 - 0x660)
    2265:	0f 62 00 00 00 00 00 00	r2 += r6
    2266:	05 00 ba 00 00 00 00 00	goto +0xba <.text+0x4b88>
    2267:	79 a1 48 f9 00 00 00 00	r1 = *(u64 *)(r10 - 0x6b8)
    2268:	b7 00 00 00 73 17 00 00	r0 = 0x1773
    2269:	a5 01 7a 01 12 00 00 00	if r1 < 0x12 goto +0x17a <.text+0x51a0>
    2270:	b7 01 00 00 00 00 00 00	r1 = 0x0
    2271:	79 a2 c8 f8 00 00 00 00	r2 = *(u64 *)(r10 - 0x738)
    2272:	05 00 1c 00 00 00 00 00	goto +0x1c <.text+0x46c8>
    2273:	bf a6 00 00 00 00 00 00	r6 = r10
    2274:	07 06 00 00 40 fb ff ff	r6 += -0x4c0
    2275:	0f 16 00 00 00 00 00 00	r6 += r1
    2276:	79 38 50 00 00 00 00 00	r8 = *(u64 *)(r3 + 0x50)
    2277:	bf 39 00 00 00 00 00 00	r9 = r3
    2278:	07 09 00 00 28 00 00 00	r9 += 0x28
    2279:	7b 96 20 00 00 00 00 00	*(u64 *)(r6 + 0x20) = r9
    2280:	bf 39 00 00 00 00 00 00	r9 = r3
    2281:	07 09 00 00 58 00 00 00	r9 += 0x58
    2282:	7b 96 18 00 00 00 00 00	*(u64 *)(r6 + 0x18) = r9
    2283:	7b 86 10 00 00 00 00 00	*(u64 *)(r6 + 0x10) = r8
    2284:	bf 38 00 00 00 00 00 00	r8 = r3
    2285:	07 08 00 00 48 00 00 00	r8 += 0x48
    2286:	7b 86 08 00 00 00 00 00	*(u64 *)(r6 + 0x8) = r8
    2287:	73 06 32 00 00 00 00 00	*(u8 *)(r6 + 0x32) = r0
    2288:	07 03 00 00 08 00 00 00	r3 += 0x8
    2289:	7b 36 00 00 00 00 00 00	*(u64 *)(r6 + 0x0) = r3
    2290:	73 56 31 00 00 00 00 00	*(u8 *)(r6 + 0x31) = r5
    2291:	73 46 30 00 00 00 00 00	*(u8 *)(r6 + 0x30) = r4
    2292:	7a 06 28 00 00 00 00 00	*(u64 *)(r6 + 0x28) = 0x0
    2293:	73 42 00 00 00 00 00 00	*(u8 *)(r2 + 0x0) = r4
    2294:	73 52 ff ff 00 00 00 00	*(u8 *)(r2 - 0x1) = r5
    2295:	7b 32 f7 ff 00 00 00 00	*(u64 *)(r2 - 0x9) = r3
    2296:	07 02 00 00 10 00 00 00	r2 += 0x10
    2297:	bf 79 00 00 00 00 00 00	r9 = r7
    2298:	07 09 00 00 08 00 00 00	r9 += 0x8
    2299:	07 01 00 00 38 00 00 00	r1 += 0x38
    2300:	15 01 0f 00 b8 03 00 00	if r1 == 0x3b8 goto +0xf <.text+0x4740>
    2301:	79 93 00 00 00 00 00 00	r3 = *(u64 *)(r9 + 0x0)
    2302:	71 35 01 00 00 00 00 00	r5 = *(u8 *)(r3 + 0x1)
    2303:	b7 00 00 00 01 00 00 00	r0 = 0x1
    2304:	b7 04 00 00 01 00 00 00	r4 = 0x1
    2305:	55 05 01 00 00 00 00 00	if r5 != 0x0 goto +0x1 <.text+0x46f8>
    2306:	b7 04 00 00 00 00 00 00	r4 = 0x0
    2307:	71 36 02 00 00 00 00 00	r6 = *(u8 *)(r3 + 0x2)
    2308:	b7 05 00 00 01 00 00 00	r5 = 0x1
    2309:	55 06 01 00 00 00 00 00	if r6 != 0x0 goto +0x1 <.text+0x4718>
    2310:	b7 05 00 00 00 00 00 00	r5 = 0x0
    2311:	bf 97 00 00 00 00 00 00	r7 = r9
    2312:	71 36 03 00 00 00 00 00	r6 = *(u8 *)(r3 + 0x3)
    2313:	55 06 d7 ff 00 00 00 00	if r6 != 0x0 goto -0x29 <.text+0x45e8>
    2314:	b7 00 00 00 00 00 00 00	r0 = 0x0
    2315:	05 00 d5 ff 00 00 00 00	goto -0x2b <.text+0x45e8>
    2316:	79 a1 38 f9 00 00 00 00	r1 = *(u64 *)(r10 - 0x6c8)
    2317:	7b 1a d9 ff 00 00 00 00	*(u64 *)(r10 - 0x27) = r1
    2318:	7a 0a e1 ff 00 00 00 00	*(u64 *)(r10 - 0x1f) = 0x0
    2319:	72 0a d8 ff 09 00 00 00	*(u8 *)(r10 - 0x28) = 0x9
    2320:	bf a1 00 00 00 00 00 00	r1 = r10
    2321:	07 01 00 00 d8 ff ff ff	r1 += -0x28
    2322:	7b 1a d0 f9 00 00 00 00	*(u64 *)(r10 - 0x630) = r1
    2323:	bf a1 00 00 00 00 00 00	r1 = r10
    2324:	07 01 00 00 f0 f9 ff ff	r1 += -0x610
    2325:	7b 1a c0 f9 00 00 00 00	*(u64 *)(r10 - 0x640) = r1
    2326:	79 a1 10 f9 00 00 00 00	r1 = *(u64 *)(r10 - 0x6f0)
    2327:	7b 1a b8 f9 00 00 00 00	*(u64 *)(r10 - 0x648) = r1
    2328:	7a 0a d8 f9 18 00 00 00	*(u64 *)(r10 - 0x628) = 0x18
    2329:	7a 0a c8 f9 11 00 00 00	*(u64 *)(r10 - 0x638) = 0x11
    2330:	bf a1 00 00 00 00 00 00	r1 = r10
    2331:	07 01 00 00 b8 f9 ff ff	r1 += -0x648
    2332:	bf a2 00 00 00 00 00 00	r2 = r10
    2333:	07 02 00 00 40 fb ff ff	r2 += -0x4c0
    2334:	b7 03 00 00 11 00 00 00	r3 = 0x11
    2335:	b7 04 00 00 08 00 00 00	r4 = 0x8
    2336:	b7 05 00 00 00 00 00 00	r5 = 0x0
    2337:	85 10 00 00 ff ff ff ff	call -0x1
    2338:	79 a2 48 f9 00 00 00 00	r2 = *(u64 *)(r10 - 0x6b8)
    2339:	07 02 00 00 ee ff ff ff	r2 += -0x12
    2340:	79 a1 80 f9 00 00 00 00	r1 = *(u64 *)(r10 - 0x680)
    2341:	7b 21 08 00 00 00 00 00	*(u64 *)(r1 + 0x8) = r2
    2342:	79 a2 58 f9 00 00 00 00	r2 = *(u64 *)(r10 - 0x6a8)
    2343:	07 02 00 00 90 00 00 00	r2 += 0x90
    2344:	05 00 6c 00 00 00 00 00	goto +0x6c <.text+0x4b88>
    2345:	79 a1 30 f9 00 00 00 00	r1 = *(u64 *)(r10 - 0x6d0)
    2346:	b7 00 00 00 73 17 00 00	r0 = 0x1773
    2347:	15 01 2c 01 00 00 00 00	if r1 == 0x0 goto +0x12c <.text+0x51a0>
    2348:	79 91 00 00 00 00 00 00	r1 = *(u64 *)(r9 + 0x0)
    2349:	79 12 50 00 00 00 00 00	r2 = *(u64 *)(r1 + 0x50)
    2350:	7b 2a c0 f9 00 00 00 00	*(u64 *)(r10 - 0x640) = r2
    2351:	07 01 00 00 58 00 00 00	r1 += 0x58
    2352:	7b 1a b8 f9 00 00 00 00	*(u64 *)(r10 - 0x648) = r1
    2353:	bf a1 00 00 00 00 00 00	r1 = r10
    2354:	07 01 00 00 40 fb ff ff	r1 += -0x4c0
    2355:	bf a2 00 00 00 00 00 00	r2 = r10
    2356:	07 02 00 00 b8 f9 ff ff	r2 += -0x648
    2357:	85 10 00 00 02 13 00 00	call 0x1302
    2358:	71 a1 ea fe 00 00 00 00	r1 = *(u8 *)(r10 - 0x116)
    2359:	15 01 3d 01 02 00 00 00	if r1 == 0x2 goto +0x13d <.text+0x5288>
    2360:	b7 08 00 00 0f 00 00 00	r8 = 0xf
    2361:	71 a1 78 fb 00 00 00 00	r1 = *(u8 *)(r10 - 0x488)
    2362:	79 a2 30 f9 00 00 00 00	r2 = *(u64 *)(r10 - 0x6d0)
    2363:	15 01 02 00 04 00 00 00	if r1 == 0x4 goto +0x2 <.text+0x48d0>
    2364:	15 01 01 00 00 00 00 00	if r1 == 0x0 goto +0x1 <.text+0x48d0>
    2365:	b7 08 00 00 10 00 00 00	r8 = 0x10
    2366:	b7 00 00 00 73 17 00 00	r0 = 0x1773
    2367:	ad 82 18 01 00 00 00 00	if r2 < r8 goto +0x118 <.text+0x51a0>
    2368:	b7 01 00 00 00 00 00 00	r1 = 0x0
    2369:	79 a2 c0 f8 00 00 00 00	r2 = *(u64 *)(r10 - 0x740)
    2370:	7b 9a a0 f9 00 00 00 00	*(u64 *)(r10 - 0x660) = r9
    2371:	bf 93 00 00 00 00 00 00	r3 = r9
    2372:	b7 04 00 00 00 00 00 00	r4 = 0x0
    2373:	7b 8a 90 f9 00 00 00 00	*(u64 *)(r10 - 0x670) = r8
    2374:	05 00 20 00 00 00 00 00	goto +0x20 <.text+0x4a18>
    2375:	bf a9 00 00 00 00 00 00	r9 = r10
    2376:	07 09 00 00 40 fb ff ff	r9 += -0x4c0
    2377:	0f 19 00 00 00 00 00 00	r9 += r1
    2378:	79 08 50 00 00 00 00 00	r8 = *(u64 *)(r0 + 0x50)
    2379:	bf 57 00 00 00 00 00 00	r7 = r5
    2380:	bf 05 00 00 00 00 00 00	r5 = r0
    2381:	07 05 00 00 28 00 00 00	r5 += 0x28
    2382:	7b 59 20 00 00 00 00 00	*(u64 *)(r9 + 0x20) = r5
    2383:	bf 05 00 00 00 00 00 00	r5 = r0
    2384:	07 05 00 00 58 00 00 00	r5 += 0x58
    2385:	7b 59 18 00 00 00 00 00	*(u64 *)(r9 + 0x18) = r5
    2386:	7b 89 10 00 00 00 00 00	*(u64 *)(r9 + 0x10) = r8
    2387:	bf 05 00 00 00 00 00 00	r5 = r0
    2388:	07 05 00 00 48 00 00 00	r5 += 0x48
    2389:	7b 59 08 00 00 00 00 00	*(u64 *)(r9 + 0x8) = r5
    2390:	73 79 32 00 00 00 00 00	*(u8 *)(r9 + 0x32) = r7
    2391:	07 00 00 00 08 00 00 00	r0 += 0x8
    2392:	7b 09 00 00 00 00 00 00	*(u64 *)(r9 + 0x0) = r0
    2393:	73 69 31 00 00 00 00 00	*(u8 *)(r9 + 0x31) = r6
    2394:	79 a7 98 f9 00 00 00 00	r7 = *(u64 *)(r10 - 0x668)
    2395:	73 79 30 00 00 00 00 00	*(u8 *)(r9 + 0x30) = r7
    2396:	7a 09 28 00 00 00 00 00	*(u64 *)(r9 + 0x28) = 0x0
    2397:	73 72 00 00 00 00 00 00	*(u8 *)(r2 + 0x0) = r7
    2398:	73 62 ff ff 00 00 00 00	*(u8 *)(r2 - 0x1) = r6
    2399:	7b 02 f7 ff 00 00 00 00	*(u64 *)(r2 - 0x9) = r0
    2400:	07 02 00 00 10 00 00 00	r2 += 0x10
    2401:	07 03 00 00 08 00 00 00	r3 += 0x8
    2402:	07 01 00 00 38 00 00 00	r1 += 0x38
    2403:	07 04 00 00 01 00 00 00	r4 += 0x1
    2404:	79 a8 90 f9 00 00 00 00	r8 = *(u64 *)(r10 - 0x670)
    2405:	ad 84 01 00 00 00 00 00	if r4 < r8 goto +0x1 <.text+0x4a18>
    2406:	05 00 0f 00 00 00 00 00	goto +0xf <.text+0x4a90>
    2407:	79 30 00 00 00 00 00 00	r0 = *(u64 *)(r3 + 0x0)
    2408:	71 06 01 00 00 00 00 00	r6 = *(u8 *)(r0 + 0x1)
    2409:	b7 05 00 00 01 00 00 00	r5 = 0x1
    2410:	b7 07 00 00 01 00 00 00	r7 = 0x1
    2411:	55 06 01 00 00 00 00 00	if r6 != 0x0 goto +0x1 <.text+0x4a48>
    2412:	b7 07 00 00 00 00 00 00	r7 = 0x0
    2413:	71 09 02 00 00 00 00 00	r9 = *(u8 *)(r0 + 0x2)
    2414:	b7 06 00 00 01 00 00 00	r6 = 0x1
    2415:	55 09 01 00 00 00 00 00	if r9 != 0x0 goto +0x1 <.text+0x4a68>
    2416:	b7 06 00 00 00 00 00 00	r6 = 0x0
    2417:	7b 7a 98 f9 00 00 00 00	*(u64 *)(r10 - 0x668) = r7
    2418:	71 09 03 00 00 00 00 00	r9 = *(u8 *)(r0 + 0x3)
    2419:	55 09 d3 ff 00 00 00 00	if r9 != 0x0 goto -0x2d <.text+0x4918>
    2420:	b7 05 00 00 00 00 00 00	r5 = 0x0
    2421:	05 00 d1 ff 00 00 00 00	goto -0x2f <.text+0x4918>
    2422:	79 a1 38 f9 00 00 00 00	r1 = *(u64 *)(r10 - 0x6c8)
    2423:	7b 1a e0 ff 00 00 00 00	*(u64 *)(r10 - 0x20) = r1
    2424:	18 01 00 00 f8 c6 9e 91 00 00 00 00 e1 75 87 c8	r1 = -0x37788a1e6e613908 ll
    2426:	7b 1a d8 ff 00 00 00 00	*(u64 *)(r10 - 0x28) = r1
    2427:	7a 0a e8 ff 00 00 00 00	*(u64 *)(r10 - 0x18) = 0x0
    2428:	bf a1 00 00 00 00 00 00	r1 = r10
    2429:	07 01 00 00 d8 ff ff ff	r1 += -0x28
    2430:	7b 1a d0 f9 00 00 00 00	*(u64 *)(r10 - 0x630) = r1
    2431:	bf a1 00 00 00 00 00 00	r1 = r10
    2432:	07 01 00 00 f0 f9 ff ff	r1 += -0x610
    2433:	7b 1a c0 f9 00 00 00 00	*(u64 *)(r10 - 0x640) = r1
    2434:	79 a1 10 f9 00 00 00 00	r1 = *(u64 *)(r10 - 0x6f0)
    2435:	7b 1a b8 f9 00 00 00 00	*(u64 *)(r10 - 0x648) = r1
    2436:	7b 8a c8 f9 00 00 00 00	*(u64 *)(r10 - 0x638) = r8
    2437:	7a 0a d8 f9 18 00 00 00	*(u64 *)(r10 - 0x628) = 0x18
    2438:	bf a1 00 00 00 00 00 00	r1 = r10
    2439:	07 01 00 00 b8 f9 ff ff	r1 += -0x648
    2440:	bf a2 00 00 00 00 00 00	r2 = r10
    2441:	07 02 00 00 40 fb ff ff	r2 += -0x4c0
    2442:	bf 83 00 00 00 00 00 00	r3 = r8
    2443:	b7 04 00 00 08 00 00 00	r4 = 0x8
    2444:	b7 05 00 00 00 00 00 00	r5 = 0x0
    2445:	85 10 00 00 ff ff ff ff	call -0x1
    2446:	79 a2 30 f9 00 00 00 00	r2 = *(u64 *)(r10 - 0x6d0)
    2447:	1f 82 00 00 00 00 00 00	r2 -= r8
    2448:	79 a1 80 f9 00 00 00 00	r1 = *(u64 *)(r10 - 0x680)
    2449:	7b 21 08 00 00 00 00 00	*(u64 *)(r1 + 0x8) = r2
    2450:	67 08 00 00 03 00 00 00	r8 <<= 0x3
    2451:	79 a2 a0 f9 00 00 00 00	r2 = *(u64 *)(r10 - 0x660)
    2452:	0f 82 00 00 00 00 00 00	r2 += r8
    2453:	7b 21 00 00 00 00 00 00	*(u64 *)(r1 + 0x0) = r2
    2454:	79 a1 20 f9 00 00 00 00	r1 = *(u64 *)(r10 - 0x6e0)
    2455:	79 11 00 00 00 00 00 00	r1 = *(u64 *)(r1 + 0x0)
    2456:	79 12 50 00 00 00 00 00	r2 = *(u64 *)(r1 + 0x50)
    2457:	25 02 01 00 47 00 00 00	if r2 > 0x47 goto +0x1 <.text+0x4bb8>
    2458:	05 00 71 fb 00 00 00 00	goto -0x48f <.text+0x2740>
    2459:	79 19 98 00 00 00 00 00	r9 = *(u64 *)(r1 + 0x98)
    2460:	bf 91 00 00 00 00 00 00	r1 = r9
    2461:	79 a2 40 f9 00 00 00 00	r2 = *(u64 *)(r10 - 0x6c0)
    2462:	1f 21 00 00 00 00 00 00	r1 -= r2
    2463:	b7 03 00 00 00 00 00 00	r3 = 0x0
    2464:	b7 02 00 00 01 00 00 00	r2 = 0x1
    2465:	2d 91 01 00 00 00 00 00	if r1 > r9 goto +0x1 <.text+0x4bf8>
    2466:	b7 02 00 00 00 00 00 00	r2 = 0x0
    2467:	79 a5 18 f9 00 00 00 00	r5 = *(u64 *)(r10 - 0x6e8)
    2468:	55 02 01 00 00 00 00 00	if r2 != 0x0 goto +0x1 <.text+0x4c10>
    2469:	bf 13 00 00 00 00 00 00	r3 = r1
    2470:	72 0a 44 fb 20 00 00 00	*(u8 *)(r10 - 0x4bc) = 0x20
    2471:	62 0a 40 fb 68 6f 70 3a	*(u32 *)(r10 - 0x4c0) = 0x3a706f68
    2472:	7a 0a 08 fc 05 00 00 00	*(u64 *)(r10 - 0x3f8) = 0x5
    2473:	7b 3a 38 f9 00 00 00 00	*(u64 *)(r10 - 0x6c8) = r3
    2474:	55 05 04 00 00 00 00 00	if r5 != 0x0 goto +0x4 <.text+0x4c58>
    2475:	b7 07 00 00 06 00 00 00	r7 = 0x6
    2476:	7a 0a 08 fc 06 00 00 00	*(u64 *)(r10 - 0x3f8) = 0x6
    2477:	72 0a 45 fb 30 00 00 00	*(u8 *)(r10 - 0x4bb) = 0x30
    2478:	05 00 26 00 00 00 00 00	goto +0x26 <.text+0x4d88>
    2479:	b7 01 00 00 00 00 00 00	r1 = 0x0
    2480:	bf 52 00 00 00 00 00 00	r2 = r5
    2481:	57 02 00 00 ff 00 00 00	r2 &= 0xff
    2482:	bf 23 00 00 00 00 00 00	r3 = r2
    2483:	37 03 00 00 0a 00 00 00	r3 /= 0xa
    2484:	bf 34 00 00 00 00 00 00	r4 = r3
    2485:	27 04 00 00 0a 00 00 00	r4 *= 0xa
    2486:	1f 45 00 00 00 00 00 00	r5 -= r4
    2487:	bf a4 00 00 00 00 00 00	r4 = r10
    2488:	07 04 00 00 f0 f9 ff ff	r4 += -0x610
    2489:	0f 14 00 00 00 00 00 00	r4 += r1
    2490:	47 05 00 00 30 00 00 00	r5 |= 0x30
    2491:	73 54 02 00 00 00 00 00	*(u8 *)(r4 + 0x2) = r5
    2492:	07 01 00 00 ff ff ff ff	r1 += -0x1
    2493:	bf 35 00 00 00 00 00 00	r5 = r3
    2494:	25 02 f1 ff 09 00 00 00	if r2 > 0x9 goto -0xf <.text+0x4c60>
    2495:	bf a2 00 00 00 00 00 00	r2 = r10
    2496:	07 02 00 00 f0 f9 ff ff	r2 += -0x610
    2497:	bf 17 00 00 00 00 00 00	r7 = r1
    2498:	87 07 00 00 00 00 00 00	r7 = -r7
    2499:	bf 76 00 00 00 00 00 00	r6 = r7
    2500:	a5 07 01 00 c3 00 00 00	if r7 < 0xc3 goto +0x1 <.text+0x4d10>
    2501:	b7 06 00 00 c3 00 00 00	r6 = 0xc3
    2502:	0f 12 00 00 00 00 00 00	r2 += r1
    2503:	07 02 00 00 03 00 00 00	r2 += 0x3
    2504:	79 a1 08 f9 00 00 00 00	r1 = *(u64 *)(r10 - 0x6f8)
    2505:	bf 63 00 00 00 00 00 00	r3 = r6
    2506:	85 10 00 00 ff ff ff ff	call -0x1
    2507:	a5 07 01 00 c4 00 00 00	if r7 < 0xc4 goto +0x1 <.text+0x4d48>
    2508:	72 0a 07 fc 40 00 00 00	*(u8 *)(r10 - 0x3f9) = 0x40
    2509:	79 a7 08 fc 00 00 00 00	r7 = *(u64 *)(r10 - 0x3f8)
    2510:	0f 67 00 00 00 00 00 00	r7 += r6
    2511:	7b 7a 08 fc 00 00 00 00	*(u64 *)(r10 - 0x3f8) = r7
    2512:	a5 07 02 00 c9 00 00 00	if r7 < 0xc9 goto +0x2 <.text+0x4d78>
    2513:	72 0a 07 fc 40 00 00 00	*(u8 *)(r10 - 0x3f9) = 0x40
    2514:	05 00 15 00 00 00 00 00	goto +0x15 <.text+0x4e20>
    2515:	79 a1 70 f9 00 00 00 00	r1 = *(u64 *)(r10 - 0x690)
    2516:	15 07 15 00 c8 00 00 00	if r7 == 0xc8 goto +0x15 <.text+0x4e30>
    2517:	b7 06 00 00 c8 00 00 00	r6 = 0xc8
    2518:	1f 76 00 00 00 00 00 00	r6 -= r7
    2519:	a5 06 01 00 09 00 00 00	if r6 < 0x9 goto +0x1 <.text+0x4da8>
    2520:	b7 06 00 00 09 00 00 00	r6 = 0x9
    2521:	bf a8 00 00 00 00 00 00	r8 = r10
    2522:	07 08 00 00 40 fb ff ff	r8 += -0x4c0
    2523:	0f 78 00 00 00 00 00 00	r8 += r7
    2524:	bf 81 00 00 00 00 00 00	r1 = r8
    2525:	18 02 00 00 db 10 02 00 00 00 00 00 00 00 00 00	r2 = 0x210db ll
    2527:	bf 63 00 00 00 00 00 00	r3 = r6
    2528:	85 10 00 00 a5 32 00 00	call 0x32a5
    2529:	a5 07 02 00 c0 00 00 00	if r7 < 0xc0 goto +0x2 <.text+0x4e00>
    2530:	0f 68 00 00 00 00 00 00	r8 += r6
    2531:	72 08 ff ff 40 00 00 00	*(u8 *)(r8 - 0x1) = 0x40
    2532:	79 a2 08 fc 00 00 00 00	r2 = *(u64 *)(r10 - 0x3f8)
    2533:	0f 62 00 00 00 00 00 00	r2 += r6
    2534:	7b 2a 08 fc 00 00 00 00	*(u64 *)(r10 - 0x3f8) = r2
    2535:	a5 02 12 00 c9 00 00 00	if r2 < 0xc9 goto +0x12 <.text+0x4eb0>
    2536:	7a 0a 08 fc c8 00 00 00	*(u64 *)(r10 - 0x3f8) = 0xc8
    2537:	79 a1 70 f9 00 00 00 00	r1 = *(u64 *)(r10 - 0x690)
    2538:	b7 02 00 00 c8 00 00 00	r2 = 0xc8
    2539:	72 0a 07 fc 40 00 00 00	*(u8 *)(r10 - 0x3f9) = 0x40
    2540:	bf a1 00 00 00 00 00 00	r1 = r10
    2541:	07 01 00 00 40 fb ff ff	r1 += -0x4c0
    2542:	85 10 00 00 ff ff ff ff	call -0x1
    2543:	b7 00 00 00 76 17 00 00	r0 = 0x1776
    2544:	b7 06 00 00 00 00 00 00	r6 = 0x0
    2545:	79 a1 40 f9 00 00 00 00	r1 = *(u64 *)(r10 - 0x6c0)
    2546:	2d 19 01 00 00 00 00 00	if r9 > r1 goto +0x1 <.text+0x4e80>
    2547:	05 00 64 00 00 00 00 00	goto +0x64 <.text+0x51a0>
    2548:	85 10 00 00 ff ff ff ff	call -0x1
    2549:	79 a3 50 f9 00 00 00 00	r3 = *(u64 *)(r10 - 0x6b0)
    2550:	bf 34 00 00 00 00 00 00	r4 = r3
    2551:	79 a1 88 f9 00 00 00 00	r1 = *(u64 *)(r10 - 0x678)
    2552:	ad 13 41 fb 00 00 00 00	if r3 < r1 goto -0x4bf <.text+0x28b0>
    2553:	05 00 63 00 00 00 00 00	goto +0x63 <.text+0x51c8>
    2554:	79 a1 70 f9 00 00 00 00	r1 = *(u64 *)(r10 - 0x690)
    2555:	15 02 ee ff c8 00 00 00	if r2 == 0xc8 goto -0x12 <.text+0x4e30>
    2556:	bf a1 00 00 00 00 00 00	r1 = r10
    2557:	07 01 00 00 40 fb ff ff	r1 += -0x4c0
    2558:	0f 21 00 00 00 00 00 00	r1 += r2
    2559:	79 a3 40 f9 00 00 00 00	r3 = *(u64 *)(r10 - 0x6c0)
    2560:	2d 39 03 00 00 00 00 00	if r9 > r3 goto +0x3 <.text+0x4f00>
    2561:	72 01 00 00 30 00 00 00	*(u8 *)(r1 + 0x0) = 0x30
    2562:	b7 06 00 00 01 00 00 00	r6 = 0x1
    2563:	05 00 1d 00 00 00 00 00	goto +0x1d <.text+0x4fe8>
    2564:	b7 07 00 00 c8 00 00 00	r7 = 0xc8
    2565:	1f 27 00 00 00 00 00 00	r7 -= r2
    2566:	b7 03 00 00 00 00 00 00	r3 = 0x0
    2567:	79 a2 38 f9 00 00 00 00	r2 = *(u64 *)(r10 - 0x6c8)
    2568:	bf 24 00 00 00 00 00 00	r4 = r2
    2569:	bf a5 00 00 00 00 00 00	r5 = r10
    2570:	07 05 00 00 f0 f9 ff ff	r5 += -0x610
    2571:	0f 35 00 00 00 00 00 00	r5 += r3
    2572:	37 02 00 00 0a 00 00 00	r2 /= 0xa
    2573:	bf 20 00 00 00 00 00 00	r0 = r2
    2574:	27 00 00 00 0a 00 00 00	r0 *= 0xa
    2575:	bf 46 00 00 00 00 00 00	r6 = r4
    2576:	1f 06 00 00 00 00 00 00	r6 -= r0
    2577:	47 06 00 00 30 00 00 00	r6 |= 0x30
    2578:	73 65 13 00 00 00 00 00	*(u8 *)(r5 + 0x13) = r6
    2579:	07 03 00 00 ff ff ff ff	r3 += -0x1
    2580:	25 04 f3 ff 09 00 00 00	if r4 > 0x9 goto -0xd <.text+0x4f20>
    2581:	bf a2 00 00 00 00 00 00	r2 = r10
    2582:	07 02 00 00 f0 f9 ff ff	r2 += -0x610
    2583:	bf 38 00 00 00 00 00 00	r8 = r3
    2584:	87 08 00 00 00 00 00 00	r8 = -r8
    2585:	bf 86 00 00 00 00 00 00	r6 = r8
    2586:	ad 78 01 00 00 00 00 00	if r8 < r7 goto +0x1 <.text+0x4fc0>
    2587:	bf 76 00 00 00 00 00 00	r6 = r7
    2588:	0f 32 00 00 00 00 00 00	r2 += r3
    2589:	07 02 00 00 14 00 00 00	r2 += 0x14
    2590:	bf 63 00 00 00 00 00 00	r3 = r6
    2591:	85 10 00 00 ff ff ff ff	call -0x1
    2592:	2d 78 07 00 00 00 00 00	if r8 > r7 goto +0x7 <.text+0x5020>
    2593:	79 a2 08 fc 00 00 00 00	r2 = *(u64 *)(r10 - 0x3f8)
    2594:	0f 62 00 00 00 00 00 00	r2 += r6
    2595:	7b 2a 08 fc 00 00 00 00	*(u64 *)(r10 - 0x3f8) = r2
    2596:	79 a1 70 f9 00 00 00 00	r1 = *(u64 *)(r10 - 0x690)
    2597:	a5 02 c6 ff c9 00 00 00	if r2 < 0xc9 goto -0x3a <.text+0x4e40>
    2598:	7a 0a 08 fc c8 00 00 00	*(u64 *)(r10 - 0x3f8) = 0xc8
    2599:	05 00 c2 ff 00 00 00 00	goto -0x3e <.text+0x4e30>
    2600:	72 0a 07 fc 40 00 00 00	*(u8 *)(r10 - 0x3f9) = 0x40
    2601:	05 00 f7 ff 00 00 00 00	goto -0x9 <.text+0x4fe8>
    2602:	bf 71 00 00 00 00 00 00	r1 = r7
    2603:	79 a2 80 f9 00 00 00 00	r2 = *(u64 *)(r10 - 0x680)
    2604:	79 a3 38 f9 00 00 00 00	r3 = *(u64 *)(r10 - 0x6c8)
    2605:	85 10 00 00 cf 01 00 00	call 0x1cf
    2606:	bf 01 00 00 00 00 00 00	r1 = r0
    2607:	67 01 00 00 20 00 00 00	r1 <<= 0x20
    2608:	77 01 00 00 20 00 00 00	r1 >>= 0x20
    2609:	15 01 64 ff 6f 17 00 00	if r1 == 0x176f goto -0x9c <.text+0x4b90>
    2610:	05 00 25 00 00 00 00 00	goto +0x25 <.text+0x51a0>
    2611:	bf 71 00 00 00 00 00 00	r1 = r7
    2612:	79 a2 80 f9 00 00 00 00	r2 = *(u64 *)(r10 - 0x680)
    2613:	79 a3 38 f9 00 00 00 00	r3 = *(u64 *)(r10 - 0x6c8)
    2614:	85 10 00 00 6d 01 00 00	call 0x16d
    2615:	bf 01 00 00 00 00 00 00	r1 = r0
    2616:	67 01 00 00 20 00 00 00	r1 <<= 0x20
    2617:	77 01 00 00 20 00 00 00	r1 >>= 0x20
    2618:	15 01 5b ff 6f 17 00 00	if r1 == 0x176f goto -0xa5 <.text+0x4b90>
    2619:	05 00 1c 00 00 00 00 00	goto +0x1c <.text+0x51a0>
    2620:	bf 71 00 00 00 00 00 00	r1 = r7
    2621:	79 a2 80 f9 00 00 00 00	r2 = *(u64 *)(r10 - 0x680)
    2622:	79 a3 38 f9 00 00 00 00	r3 = *(u64 *)(r10 - 0x6c8)
    2623:	85 10 00 00 29 03 00 00	call 0x329
    2624:	bf 01 00 00 00 00 00 00	r1 = r0
    2625:	67 01 00 00 20 00 00 00	r1 <<= 0x20
    2626:	77 01 00 00 20 00 00 00	r1 >>= 0x20
    2627:	15 01 52 ff 6f 17 00 00	if r1 == 0x176f goto -0xae <.text+0x4b90>
    2628:	05 00 13 00 00 00 00 00	goto +0x13 <.text+0x51a0>
    2629:	bf 71 00 00 00 00 00 00	r1 = r7
    2630:	79 a2 80 f9 00 00 00 00	r2 = *(u64 *)(r10 - 0x680)
    2631:	79 a3 38 f9 00 00 00 00	r3 = *(u64 *)(r10 - 0x6c8)
    2632:	85 10 00 00 77 03 00 00	call 0x377
    2633:	bf 01 00 00 00 00 00 00	r1 = r0
    2634:	67 01 00 00 20 00 00 00	r1 <<= 0x20
    2635:	77 01 00 00 20 00 00 00	r1 >>= 0x20
    2636:	15 01 49 ff 6f 17 00 00	if r1 == 0x176f goto -0xb7 <.text+0x4b90>
    2637:	05 00 0a 00 00 00 00 00	goto +0xa <.text+0x51a0>
    2638:	bf a4 00 00 00 00 00 00	r4 = r10
    2639:	07 04 00 00 a8 f9 ff ff	r4 += -0x658
    2640:	bf 71 00 00 00 00 00 00	r1 = r7
    2641:	79 a2 80 f9 00 00 00 00	r2 = *(u64 *)(r10 - 0x680)
    2642:	79 a3 38 f9 00 00 00 00	r3 = *(u64 *)(r10 - 0x6c8)
    2643:	85 10 00 00 3c 05 00 00	call 0x53c
    2644:	bf 01 00 00 00 00 00 00	r1 = r0
    2645:	67 01 00 00 20 00 00 00	r1 <<= 0x20
    2646:	77 01 00 00 20 00 00 00	r1 >>= 0x20
    2647:	15 01 3e ff 6f 17 00 00	if r1 == 0x176f goto -0xc2 <.text+0x4b90>
    2648:	79 a1 70 f9 00 00 00 00	r1 = *(u64 *)(r10 - 0x690)
    2649:	63 01 04 00 00 00 00 00	*(u32 *)(r1 + 0x4) = r0
    2650:	63 61 00 00 00 00 00 00	*(u32 *)(r1 + 0x0) = r6
    2651:	7a 01 08 00 00 00 00 00	*(u64 *)(r1 + 0x8) = 0x0
    2652:	95 00 00 00 00 00 00 00	exit
    2653:	79 a1 68 f9 00 00 00 00	r1 = *(u64 *)(r10 - 0x698)
    2654:	79 11 08 00 00 00 00 00	r1 = *(u64 *)(r1 + 0x8)
    2655:	79 12 50 00 00 00 00 00	r2 = *(u64 *)(r1 + 0x50)
    2656:	25 02 01 00 47 00 00 00	if r2 > 0x47 goto +0x1 <.text+0x51f0>
    2657:	05 00 aa fa 00 00 00 00	goto -0x556 <.text+0x2740>
    2658:	b7 00 00 00 71 17 00 00	r0 = 0x1771
    2659:	b7 06 00 00 00 00 00 00	r6 = 0x0
    2660:	79 11 98 00 00 00 00 00	r1 = *(u64 *)(r1 + 0x98)
    2661:	79 a2 28 f9 00 00 00 00	r2 = *(u64 *)(r10 - 0x6d8)
    2662:	bd 21 f1 ff 00 00 00 00	if r1 <= r2 goto -0xf <.text+0x51a0>
    2663:	79 a2 88 f9 00 00 00 00	r2 = *(u64 *)(r10 - 0x678)
    2664:	79 a3 70 f9 00 00 00 00	r3 = *(u64 *)(r10 - 0x690)
    2665:	7b 23 18 00 00 00 00 00	*(u64 *)(r3 + 0x18) = r2
    2666:	79 a2 60 f9 00 00 00 00	r2 = *(u64 *)(r10 - 0x6a0)
    2667:	7b 23 10 00 00 00 00 00	*(u64 *)(r3 + 0x10) = r2
    2668:	79 a2 78 f9 00 00 00 00	r2 = *(u64 *)(r10 - 0x688)
    2669:	7b 23 08 00 00 00 00 00	*(u64 *)(r3 + 0x8) = r2
    2670:	79 a2 28 f9 00 00 00 00	r2 = *(u64 *)(r10 - 0x6d8)
    2671:	1f 21 00 00 00 00 00 00	r1 -= r2
    2672:	7b 13 00 00 00 00 00 00	*(u64 *)(r3 + 0x0) = r1
    2673:	05 00 ea ff 00 00 00 00	goto -0x16 <.text+0x51c0>
    2674:	18 03 00 00 e8 42 02 00 00 00 00 00 00 00 00 00	r3 = 0x242e8 ll
    2676:	85 10 00 00 de 2c 00 00	call 0x2cde
    2677:	79 a1 48 fb 00 00 00 00	r1 = *(u64 *)(r10 - 0x4b8)
    2678:	7b 1a f8 f9 00 00 00 00	*(u64 *)(r10 - 0x608) = r1
    2679:	79 a1 40 fb 00 00 00 00	r1 = *(u64 *)(r10 - 0x4c0)
    2680:	7b 1a f0 f9 00 00 00 00	*(u64 *)(r10 - 0x610) = r1
    2681:	bf a3 00 00 00 00 00 00	r3 = r10
    2682:	07 03 00 00 f0 f9 ff ff	r3 += -0x610
    2683:	18 01 00 00 84 11 02 00 00 00 00 00 00 00 00 00	r1 = 0x21184 ll
    2685:	b7 02 00 00 2b 00 00 00	r2 = 0x2b
    2686:	18 04 00 00 00 43 02 00 00 00 00 00 00 00 00 00	r4 = 0x24300 ll
    2688:	18 05 00 00 20 43 02 00 00 00 00 00 00 00 00 00	r5 = 0x24320 ll
    2690:	85 10 00 00 de 25 00 00	call 0x25de
    2691:	18 02 00 00 75 6e 74 20 00 00 00 00 6c 65 6e 67	r2 = 0x676e656c20746e75 ll
    2693:	7b 2a e8 fe 00 00 00 00	*(u64 *)(r10 - 0x118) = r2
    2694:	18 02 00 00 61 74 65 20 00 00 00 00 61 63 63 6f	r2 = 0x6f63636120657461 ll
    2696:	7b 2a e0 fe 00 00 00 00	*(u64 *)(r10 - 0x120) = r2
    2697:	18 02 00 00 6f 20 63 61 00 00 00 00 6c 63 75 6c	r2 = 0x6c75636c6163206f ll
    2699:	7b 2a d8 fe 00 00 00 00	*(u64 *)(r10 - 0x128) = r2
    2700:	18 02 00 00 46 61 69 6c 00 00 00 00 65 64 20 74	r2 = 0x742064656c696146 ll
    2702:	7b 2a d0 fe 00 00 00 00	*(u64 *)(r10 - 0x130) = r2
    2703:	62 0a f0 fe 74 68 3a 20	*(u32 *)(r10 - 0x110) = 0x203a6874
    2704:	7a 0a 98 ff 24 00 00 00	*(u64 *)(r10 - 0x68) = 0x24
    2705:	7a 0a b0 ff 00 00 00 00	*(u64 *)(r10 - 0x50) = 0x0
    2706:	7a 0a a8 ff 01 00 00 00	*(u64 *)(r10 - 0x58) = 0x1
    2707:	7a 0a a0 ff 00 00 00 00	*(u64 *)(r10 - 0x60) = 0x0
    2708:	18 02 00 00 a8 40 02 00 00 00 00 00 00 00 00 00	r2 = 0x240a8 ll
    2710:	7b 2a e0 ff 00 00 00 00	*(u64 *)(r10 - 0x20) = r2
    2711:	bf a2 00 00 00 00 00 00	r2 = r10
    2712:	07 02 00 00 a0 ff ff ff	r2 += -0x60
    2713:	7b 2a d8 ff 00 00 00 00	*(u64 *)(r10 - 0x28) = r2
    2714:	72 0a f0 ff 03 00 00 00	*(u8 *)(r10 - 0x10) = 0x3
    2715:	7a 0a e8 ff 20 00 00 00	*(u64 *)(r10 - 0x18) = 0x20
    2716:	7a 0a c8 ff 00 00 00 00	*(u64 *)(r10 - 0x38) = 0x0
    2717:	7a 0a b8 ff 00 00 00 00	*(u64 *)(r10 - 0x48) = 0x0
    2718:	bf a2 00 00 00 00 00 00	r2 = r10
    2719:	07 02 00 00 b8 ff ff ff	r2 += -0x48
    2720:	85 10 00 00 85 1b 00 00	call 0x1b85
    2721:	55 00 18 00 00 00 00 00	if r0 != 0x0 goto +0x18 <.text+0x54b0>
    2722:	79 a8 b0 ff 00 00 00 00	r8 = *(u64 *)(r10 - 0x50)
    2723:	bf 86 00 00 00 00 00 00	r6 = r8
    2724:	a5 08 01 00 a4 00 00 00	if r8 < 0xa4 goto +0x1 <.text+0x5410>
    2725:	b7 06 00 00 a4 00 00 00	r6 = 0xa4
    2726:	79 a2 a8 ff 00 00 00 00	r2 = *(u64 *)(r10 - 0x58)
    2727:	bf a7 00 00 00 00 00 00	r7 = r10
    2728:	07 07 00 00 f4 fe ff ff	r7 += -0x10c
    2729:	bf 71 00 00 00 00 00 00	r1 = r7
    2730:	bf 63 00 00 00 00 00 00	r3 = r6
    2731:	85 10 00 00 da 31 00 00	call 0x31da
    2732:	a5 08 02 00 a5 00 00 00	if r8 < 0xa5 goto +0x2 <.text+0x5458>
    2733:	0f 67 00 00 00 00 00 00	r7 += r6
    2734:	72 07 ff ff 40 00 00 00	*(u8 *)(r7 - 0x1) = 0x40
    2735:	79 a2 98 ff 00 00 00 00	r2 = *(u64 *)(r10 - 0x68)
    2736:	0f 62 00 00 00 00 00 00	r2 += r6
    2737:	7b 2a 98 ff 00 00 00 00	*(u64 *)(r10 - 0x68) = r2
    2738:	a5 02 03 00 c9 00 00 00	if r2 < 0xc9 goto +0x3 <.text+0x5490>
    2739:	b7 02 00 00 c8 00 00 00	r2 = 0xc8
    2740:	72 0a 97 ff 40 00 00 00	*(u8 *)(r10 - 0x69) = 0x40
    2741:	7a 0a 98 ff c8 00 00 00	*(u64 *)(r10 - 0x68) = 0xc8
    2742:	bf a1 00 00 00 00 00 00	r1 = r10
    2743:	07 01 00 00 d0 fe ff ff	r1 += -0x130
    2744:	85 10 00 00 ff ff ff ff	call -0x1
    2745:	95 00 00 00 00 00 00 00	exit
    2746:	bf a3 00 00 00 00 00 00	r3 = r10
    2747:	07 03 00 00 ff ff ff ff	r3 += -0x1
    2748:	18 01 00 00 80 10 02 00 00 00 00 00 00 00 00 00	r1 = 0x21080 ll
    2750:	b7 02 00 00 37 00 00 00	r2 = 0x37
    2751:	18 04 00 00 78 41 02 00 00 00 00 00 00 00 00 00	r4 = 0x24178 ll
    2753:	18 05 00 00 98 41 02 00 00 00 00 00 00 00 00 00	r5 = 0x24198 ll
    2755:	85 10 00 00 9d 25 00 00	call 0x259d
    2756:	bf 59 00 00 00 00 00 00	r9 = r5
    2757:	bf 26 00 00 00 00 00 00	r6 = r2
    2758:	bf a2 00 00 00 00 00 00	r2 = r10
    2759:	07 02 00 00 48 f9 ff ff	r2 += -0x6b8
    2760:	79 42 50 00 00 00 00 00	r2 = *(u64 *)(r4 + 0x50)
    2761:	25 02 04 00 1f 00 00 00	if r2 > 0x1f goto +0x4 <.text+0x5550>
    2762:	b7 01 00 00 20 00 00 00	r1 = 0x20
    2763:	18 03 00 00 f8 41 02 00 00 00 00 00 00 00 00 00	r3 = 0x241f8 ll
    2765:	85 10 00 00 85 2c 00 00	call 0x2c85
    2766:	7b 1a e8 f8 00 00 00 00	*(u64 *)(r10 - 0x718) = r1
    2767:	79 67 08 00 00 00 00 00	r7 = *(u64 *)(r6 + 0x8)
    2768:	15 07 c4 00 00 00 00 00	if r7 == 0x0 goto +0xc4 <.text+0x5b88>
    2769:	79 68 00 00 00 00 00 00	r8 = *(u64 *)(r6 + 0x0)
    2770:	79 81 00 00 00 00 00 00	r1 = *(u64 *)(r8 + 0x0)
    2771:	79 12 50 00 00 00 00 00	r2 = *(u64 *)(r1 + 0x50)
    2772:	25 02 04 00 6a 00 00 00	if r2 > 0x6a goto +0x4 <.text+0x55a8>
    2773:	b7 01 00 00 6b 00 00 00	r1 = 0x6b
    2774:	18 03 00 00 a0 42 02 00 00 00 00 00 00 00 00 00	r3 = 0x242a0 ll
    2776:	85 10 00 00 7a 2c 00 00	call 0x2c7a
    2777:	7b 3a f0 f8 00 00 00 00	*(u64 *)(r10 - 0x710) = r3
    2778:	07 04 00 00 58 00 00 00	r4 += 0x58
    2779:	07 01 00 00 a3 00 00 00	r1 += 0xa3
    2780:	bf 42 00 00 00 00 00 00	r2 = r4
    2781:	b7 03 00 00 20 00 00 00	r3 = 0x20
    2782:	85 10 00 00 b0 31 00 00	call 0x31b0
    2783:	bf 01 00 00 00 00 00 00	r1 = r0
    2784:	67 01 00 00 20 00 00 00	r1 <<= 0x20
    2785:	77 01 00 00 20 00 00 00	r1 >>= 0x20
    2786:	b7 03 00 00 17 00 00 00	r3 = 0x17
    2787:	15 01 01 00 00 00 00 00	if r1 == 0x0 goto +0x1 <.text+0x5608>
    2788:	b7 03 00 00 15 00 00 00	r3 = 0x15
    2789:	b7 01 00 00 73 17 00 00	r1 = 0x1773
    2790:	ad 37 aa 00 00 00 00 00	if r7 < r3 goto +0xaa <.text+0x5b68>
    2791:	b7 01 00 00 77 17 00 00	r1 = 0x1777
    2792:	79 92 08 00 00 00 00 00	r2 = *(u64 *)(r9 + 0x8)
    2793:	a5 02 a7 00 02 00 00 00	if r2 < 0x2 goto +0xa7 <.text+0x5b68>
    2794:	7b 0a c8 f8 00 00 00 00	*(u64 *)(r10 - 0x738) = r0
    2795:	7b 7a d0 f8 00 00 00 00	*(u64 *)(r10 - 0x730) = r7
    2796:	7b 6a d8 f8 00 00 00 00	*(u64 *)(r10 - 0x728) = r6
    2797:	07 02 00 00 fe ff ff ff	r2 += -0x2
    2798:	79 91 00 00 00 00 00 00	r1 = *(u64 *)(r9 + 0x0)
    2799:	69 14 00 00 00 00 00 00	r4 = *(u16 *)(r1 + 0x0)
    2800:	7b 4a c0 f8 00 00 00 00	*(u64 *)(r10 - 0x740) = r4
    2801:	7b 29 08 00 00 00 00 00	*(u64 *)(r9 + 0x8) = r2
    2802:	07 01 00 00 02 00 00 00	r1 += 0x2
    2803:	7b 19 00 00 00 00 00 00	*(u64 *)(r9 + 0x0) = r1
    2804:	b7 01 00 00 00 00 00 00	r1 = 0x0
    2805:	bf a2 00 00 00 00 00 00	r2 = r10
    2806:	07 02 00 00 50 f9 ff ff	r2 += -0x6b0
    2807:	7b 8a e0 f8 00 00 00 00	*(u64 *)(r10 - 0x720) = r8
    2808:	bf 89 00 00 00 00 00 00	r9 = r8
    2809:	b7 04 00 00 00 00 00 00	r4 = 0x0
    2810:	7b 3a f8 f8 00 00 00 00	*(u64 *)(r10 - 0x708) = r3
    2811:	05 00 1f 00 00 00 00 00	goto +0x1f <.text+0x57b8>
    2812:	bf a8 00 00 00 00 00 00	r8 = r10
    2813:	07 08 00 00 b8 fa ff ff	r8 += -0x548
    2814:	0f 18 00 00 00 00 00 00	r8 += r1
    2815:	79 07 50 00 00 00 00 00	r7 = *(u64 *)(r0 + 0x50)
    2816:	bf 05 00 00 00 00 00 00	r5 = r0
    2817:	07 05 00 00 28 00 00 00	r5 += 0x28
    2818:	7b 58 20 00 00 00 00 00	*(u64 *)(r8 + 0x20) = r5
    2819:	bf 05 00 00 00 00 00 00	r5 = r0
    2820:	07 05 00 00 58 00 00 00	r5 += 0x58
    2821:	7b 58 18 00 00 00 00 00	*(u64 *)(r8 + 0x18) = r5
    2822:	7b 78 10 00 00 00 00 00	*(u64 *)(r8 + 0x10) = r7
    2823:	bf 05 00 00 00 00 00 00	r5 = r0
    2824:	07 05 00 00 48 00 00 00	r5 += 0x48
    2825:	7b 58 08 00 00 00 00 00	*(u64 *)(r8 + 0x8) = r5
    2826:	73 38 32 00 00 00 00 00	*(u8 *)(r8 + 0x32) = r3
    2827:	07 00 00 00 08 00 00 00	r0 += 0x8
    2828:	7b 08 00 00 00 00 00 00	*(u64 *)(r8 + 0x0) = r0
    2829:	73 68 31 00 00 00 00 00	*(u8 *)(r8 + 0x31) = r6
    2830:	79 a3 00 f9 00 00 00 00	r3 = *(u64 *)(r10 - 0x700)
    2831:	73 38 30 00 00 00 00 00	*(u8 *)(r8 + 0x30) = r3
    2832:	7a 08 28 00 00 00 00 00	*(u64 *)(r8 + 0x28) = 0x0
    2833:	73 32 01 00 00 00 00 00	*(u8 *)(r2 + 0x1) = r3
    2834:	73 62 00 00 00 00 00 00	*(u8 *)(r2 + 0x0) = r6
    2835:	7b 02 f8 ff 00 00 00 00	*(u64 *)(r2 - 0x8) = r0
    2836:	07 02 00 00 10 00 00 00	r2 += 0x10
    2837:	07 09 00 00 08 00 00 00	r9 += 0x8
    2838:	07 01 00 00 38 00 00 00	r1 += 0x38
    2839:	07 04 00 00 01 00 00 00	r4 += 0x1
    2840:	79 a3 f8 f8 00 00 00 00	r3 = *(u64 *)(r10 - 0x708)
    2841:	ad 34 01 00 00 00 00 00	if r4 < r3 goto +0x1 <.text+0x57b8>
    2842:	05 00 0f 00 00 00 00 00	goto +0xf <.text+0x5830>
    2843:	79 90 00 00 00 00 00 00	r0 = *(u64 *)(r9 + 0x0)
    2844:	71 06 01 00 00 00 00 00	r6 = *(u8 *)(r0 + 0x1)
    2845:	b7 05 00 00 01 00 00 00	r5 = 0x1
    2846:	55 06 01 00 00 00 00 00	if r6 != 0x0 goto +0x1 <.text+0x57e0>
    2847:	b7 05 00 00 00 00 00 00	r5 = 0x0
    2848:	71 08 02 00 00 00 00 00	r8 = *(u8 *)(r0 + 0x2)
    2849:	b7 06 00 00 01 00 00 00	r6 = 0x1
    2850:	55 08 01 00 00 00 00 00	if r8 != 0x0 goto +0x1 <.text+0x5800>
    2851:	b7 06 00 00 00 00 00 00	r6 = 0x0
    2852:	7b 5a 00 f9 00 00 00 00	*(u64 *)(r10 - 0x700) = r5
    2853:	71 08 03 00 00 00 00 00	r8 = *(u8 *)(r0 + 0x3)
    2854:	b7 03 00 00 01 00 00 00	r3 = 0x1
    2855:	55 08 d4 ff 00 00 00 00	if r8 != 0x0 goto -0x2c <.text+0x56c0>
    2856:	b7 03 00 00 00 00 00 00	r3 = 0x0
    2857:	05 00 d2 ff 00 00 00 00	goto -0x2e <.text+0x56c0>
    2858:	b7 02 00 00 00 00 00 00	r2 = 0x0
    2859:	18 01 00 00 33 e6 85 a4 00 00 00 00 01 7f 83 ad	r1 = -0x527c80fe5b7a19cd ll
    2861:	79 a5 c8 f8 00 00 00 00	r5 = *(u64 *)(r10 - 0x738)
    2862:	67 05 00 00 20 00 00 00	r5 <<= 0x20
    2863:	77 05 00 00 20 00 00 00	r5 >>= 0x20
    2864:	79 a7 d8 f8 00 00 00 00	r7 = *(u64 *)(r10 - 0x728)
    2865:	79 a8 d0 f8 00 00 00 00	r8 = *(u64 *)(r10 - 0x730)
    2866:	79 a4 f0 f8 00 00 00 00	r4 = *(u64 *)(r10 - 0x710)
    2867:	15 05 01 00 00 00 00 00	if r5 == 0x0 goto +0x1 <.text+0x5888>
    2868:	05 00 40 00 00 00 00 00	goto +0x40 <.text+0x5a88>
    2869:	25 08 01 00 07 00 00 00	if r8 > 0x7 goto +0x1 <.text+0x5898>
    2870:	05 00 63 00 00 00 00 00	goto +0x63 <.text+0x5bb0>
    2871:	79 a1 e0 f8 00 00 00 00	r1 = *(u64 *)(r10 - 0x720)
    2872:	79 11 38 00 00 00 00 00	r1 = *(u64 *)(r1 + 0x38)
    2873:	79 12 50 00 00 00 00 00	r2 = *(u64 *)(r1 + 0x50)
    2874:	25 02 04 00 47 00 00 00	if r2 > 0x47 goto +0x4 <.text+0x58d8>
    2875:	b7 01 00 00 48 00 00 00	r1 = 0x48
    2876:	18 03 00 00 e0 41 02 00 00 00 00 00 00 00 00 00	r3 = 0x241e0 ll
    2878:	85 10 00 00 14 2c 00 00	call 0x2c14
    2879:	15 08 5f 00 08 00 00 00	if r8 == 0x8 goto +0x5f <.text+0x5bd8>
    2880:	79 a2 e0 f8 00 00 00 00	r2 = *(u64 *)(r10 - 0x720)
    2881:	79 26 40 00 00 00 00 00	r6 = *(u64 *)(r2 + 0x40)
    2882:	79 62 50 00 00 00 00 00	r2 = *(u64 *)(r6 + 0x50)
    2883:	25 02 01 00 47 00 00 00	if r2 > 0x47 goto +0x1 <.text+0x5908>
    2884:	05 00 f6 ff 00 00 00 00	goto -0xa <.text+0x58b8>
    2885:	79 11 98 00 00 00 00 00	r1 = *(u64 *)(r1 + 0x98)
    2886:	7b 1a 00 f9 00 00 00 00	*(u64 *)(r10 - 0x700) = r1
    2887:	bf a1 00 00 00 00 00 00	r1 = r10
    2888:	07 01 00 00 38 f9 ff ff	r1 += -0x6c8
    2889:	bf 42 00 00 00 00 00 00	r2 = r4
    2890:	b7 03 00 00 00 00 00 00	r3 = 0x0
    2891:	b7 04 00 00 10 27 00 00	r4 = 0x2710
    2892:	b7 05 00 00 00 00 00 00	r5 = 0x0
    2893:	85 10 00 00 a9 34 00 00	call 0x34a9
    2894:	79 a4 c0 f8 00 00 00 00	r4 = *(u64 *)(r10 - 0x740)
    2895:	07 04 00 00 10 27 00 00	r4 += 0x2710
    2896:	bf a1 00 00 00 00 00 00	r1 = r10
    2897:	07 01 00 00 28 f9 ff ff	r1 += -0x6d8
    2898:	79 a2 38 f9 00 00 00 00	r2 = *(u64 *)(r10 - 0x6c8)
    2899:	79 a3 40 f9 00 00 00 00	r3 = *(u64 *)(r10 - 0x6c0)
    2900:	b7 05 00 00 00 00 00 00	r5 = 0x0
    2901:	85 10 00 00 bc 35 00 00	call 0x35bc
    2902:	79 61 98 00 00 00 00 00	r1 = *(u64 *)(r6 + 0x98)
    2903:	79 a2 28 f9 00 00 00 00	r2 = *(u64 *)(r10 - 0x6d8)
    2904:	bf 29 00 00 00 00 00 00	r9 = r2
    2905:	0f 19 00 00 00 00 00 00	r9 += r1
    2906:	b7 01 00 00 01 00 00 00	r1 = 0x1
    2907:	ad 29 01 00 00 00 00 00	if r9 < r2 goto +0x1 <.text+0x59c8>
    2908:	b7 01 00 00 00 00 00 00	r1 = 0x0
    2909:	79 a3 30 f9 00 00 00 00	r3 = *(u64 *)(r10 - 0x6d0)
    2910:	bf 36 00 00 00 00 00 00	r6 = r3
    2911:	0f 16 00 00 00 00 00 00	r6 += r1
    2912:	bf 91 00 00 00 00 00 00	r1 = r9
    2913:	4f 61 00 00 00 00 00 00	r1 |= r6
    2914:	15 01 30 00 00 00 00 00	if r1 == 0x0 goto +0x30 <.text+0x5b78>
    2915:	bf a1 00 00 00 00 00 00	r1 = r10
    2916:	07 01 00 00 18 f9 ff ff	r1 += -0x6e8
    2917:	79 a4 00 f9 00 00 00 00	r4 = *(u64 *)(r10 - 0x700)
    2918:	b7 05 00 00 00 00 00 00	r5 = 0x0
    2919:	85 10 00 00 8f 34 00 00	call 0x348f
    2920:	bf a1 00 00 00 00 00 00	r1 = r10
    2921:	07 01 00 00 08 f9 ff ff	r1 += -0x6f8
    2922:	79 a2 18 f9 00 00 00 00	r2 = *(u64 *)(r10 - 0x6e8)
    2923:	79 a3 20 f9 00 00 00 00	r3 = *(u64 *)(r10 - 0x6e0)
    2924:	bf 94 00 00 00 00 00 00	r4 = r9
    2925:	bf 65 00 00 00 00 00 00	r5 = r6
    2926:	85 10 00 00 a3 35 00 00	call 0x35a3
    2927:	18 01 00 00 66 06 3d 12 00 00 00 00 01 da eb ea	r1 = -0x151425feedc2f99a ll
    2929:	79 a2 f0 f8 00 00 00 00	r2 = *(u64 *)(r10 - 0x710)
    2930:	07 02 00 00 05 00 00 00	r2 += 0x5
    2931:	79 a4 08 f9 00 00 00 00	r4 = *(u64 *)(r10 - 0x6f8)
    2932:	79 a3 f8 f8 00 00 00 00	r3 = *(u64 *)(r10 - 0x708)
    2933:	7b 2a d0 ff 00 00 00 00	*(u64 *)(r10 - 0x30) = r2
    2934:	7b 4a c8 ff 00 00 00 00	*(u64 *)(r10 - 0x38) = r4
    2935:	7b 1a c0 ff 00 00 00 00	*(u64 *)(r10 - 0x40) = r1
    2936:	bf a1 00 00 00 00 00 00	r1 = r10
    2937:	07 01 00 00 c0 ff ff ff	r1 += -0x40
    2938:	7b 1a f0 ff 00 00 00 00	*(u64 *)(r10 - 0x10) = r1
    2939:	bf a1 00 00 00 00 00 00	r1 = r10
    2940:	07 01 00 00 48 f9 ff ff	r1 += -0x6b8
    2941:	7b 1a e0 ff 00 00 00 00	*(u64 *)(r10 - 0x20) = r1
    2942:	79 a1 e8 f8 00 00 00 00	r1 = *(u64 *)(r10 - 0x718)
    2943:	7b 1a d8 ff 00 00 00 00	*(u64 *)(r10 - 0x28) = r1
    2944:	7b 3a e8 ff 00 00 00 00	*(u64 *)(r10 - 0x18) = r3
    2945:	7a 0a f8 ff 18 00 00 00	*(u64 *)(r10 - 0x8) = 0x18
    2946:	bf a1 00 00 00 00 00 00	r1 = r10
    2947:	07 01 00 00 d8 ff ff ff	r1 += -0x28
    2948:	bf a2 00 00 00 00 00 00	r2 = r10
    2949:	07 02 00 00 b8 fa ff ff	r2 += -0x548
    2950:	b7 04 00 00 08 00 00 00	r4 = 0x8
    2951:	bf 36 00 00 00 00 00 00	r6 = r3
    2952:	b7 05 00 00 00 00 00 00	r5 = 0x0
    2953:	85 10 00 00 ff ff ff ff	call -0x1
    2954:	1f 68 00 00 00 00 00 00	r8 -= r6
    2955:	7b 87 08 00 00 00 00 00	*(u64 *)(r7 + 0x8) = r8
    2956:	67 06 00 00 03 00 00 00	r6 <<= 0x3
    2957:	79 a1 e0 f8 00 00 00 00	r1 = *(u64 *)(r10 - 0x720)
    2958:	0f 61 00 00 00 00 00 00	r1 += r6
    2959:	7b 17 00 00 00 00 00 00	*(u64 *)(r7 + 0x0) = r1
    2960:	b7 01 00 00 6f 17 00 00	r1 = 0x176f
    2961:	bf 10 00 00 00 00 00 00	r0 = r1
    2962:	95 00 00 00 00 00 00 00	exit
    2963:	b7 01 00 00 75 17 00 00	r1 = 0x1775
    2964:	05 00 fc ff 00 00 00 00	goto -0x4 <.text+0x5b68>
    2965:	b7 01 00 00 00 00 00 00	r1 = 0x0
    2966:	b7 02 00 00 00 00 00 00	r2 = 0x0
    2967:	18 03 00 00 88 42 02 00 00 00 00 00 00 00 00 00	r3 = 0x24288 ll
    2969:	85 10 00 00 ae 24 00 00	call 0x24ae
    2970:	b7 01 00 00 07 00 00 00	r1 = 0x7
    2971:	bf 82 00 00 00 00 00 00	r2 = r8
    2972:	18 03 00 00 b8 42 02 00 00 00 00 00 00 00 00 00	r3 = 0x242b8 ll
    2974:	85 10 00 00 a9 24 00 00	call 0x24a9
    2975:	b7 01 00 00 08 00 00 00	r1 = 0x8
    2976:	b7 02 00 00 08 00 00 00	r2 = 0x8
    2977:	18 03 00 00 d0 42 02 00 00 00 00 00 00 00 00 00	r3 = 0x242d0 ll
    2979:	85 10 00 00 a4 24 00 00	call 0x24a4
    2980:	b7 00 00 00 73 17 00 00	r0 = 0x1773
    2981:	bf a4 00 00 00 00 00 00	r4 = r10
    2982:	07 04 00 00 18 fc ff ff	r4 += -0x3e8
    2983:	79 24 08 00 00 00 00 00	r4 = *(u64 *)(r2 + 0x8)
    2984:	a5 04 53 00 0d 00 00 00	if r4 < 0xd goto +0x53 <.text+0x5ec0>
    2985:	7b 3a f0 fb 00 00 00 00	*(u64 *)(r10 - 0x410) = r3
    2986:	7b 1a f8 fb 00 00 00 00	*(u64 *)(r10 - 0x408) = r1
    2987:	7b 4a 08 fc 00 00 00 00	*(u64 *)(r10 - 0x3f8) = r4
    2988:	b7 03 00 00 00 00 00 00	r3 = 0x0
    2989:	bf a4 00 00 00 00 00 00	r4 = r10
    2990:	07 04 00 00 20 fc ff ff	r4 += -0x3e0
    2991:	7b 2a 10 fc 00 00 00 00	*(u64 *)(r10 - 0x3f0) = r2
    2992:	79 25 00 00 00 00 00 00	r5 = *(u64 *)(r2 + 0x0)
    2993:	7b 5a 00 fc 00 00 00 00	*(u64 *)(r10 - 0x400) = r5
    2994:	05 00 1b 00 00 00 00 00	goto +0x1b <.text+0x5d50>
    2995:	bf a7 00 00 00 00 00 00	r7 = r10
    2996:	07 07 00 00 e8 fc ff ff	r7 += -0x318
    2997:	0f 37 00 00 00 00 00 00	r7 += r3
    2998:	79 16 50 00 00 00 00 00	r6 = *(u64 *)(r1 + 0x50)
    2999:	bf 10 00 00 00 00 00 00	r0 = r1
    3000:	07 00 00 00 28 00 00 00	r0 += 0x28
    3001:	7b 07 20 00 00 00 00 00	*(u64 *)(r7 + 0x20) = r0
    3002:	bf 10 00 00 00 00 00 00	r0 = r1
    3003:	07 00 00 00 58 00 00 00	r0 += 0x58
    3004:	7b 07 18 00 00 00 00 00	*(u64 *)(r7 + 0x18) = r0
    3005:	7b 67 10 00 00 00 00 00	*(u64 *)(r7 + 0x10) = r6
    3006:	bf 10 00 00 00 00 00 00	r0 = r1
    3007:	07 00 00 00 48 00 00 00	r0 += 0x48
    3008:	7b 07 08 00 00 00 00 00	*(u64 *)(r7 + 0x8) = r0
    3009:	73 27 32 00 00 00 00 00	*(u8 *)(r7 + 0x32) = r2
    3010:	07 01 00 00 08 00 00 00	r1 += 0x8
    3011:	7b 17 00 00 00 00 00 00	*(u64 *)(r7 + 0x0) = r1
    3012:	73 87 31 00 00 00 00 00	*(u8 *)(r7 + 0x31) = r8
    3013:	73 97 30 00 00 00 00 00	*(u8 *)(r7 + 0x30) = r9
    3014:	7a 07 28 00 00 00 00 00	*(u64 *)(r7 + 0x28) = 0x0
    3015:	73 94 01 00 00 00 00 00	*(u8 *)(r4 + 0x1) = r9
    3016:	73 84 00 00 00 00 00 00	*(u8 *)(r4 + 0x0) = r8
    3017:	7b 14 f8 ff 00 00 00 00	*(u64 *)(r4 - 0x8) = r1
    3018:	07 04 00 00 10 00 00 00	r4 += 0x10
    3019:	07 05 00 00 08 00 00 00	r5 += 0x8
    3020:	07 03 00 00 38 00 00 00	r3 += 0x38
    3021:	15 03 0e 00 d8 02 00 00	if r3 == 0x2d8 goto +0xe <.text+0x5dc0>
    3022:	79 51 00 00 00 00 00 00	r1 = *(u64 *)(r5 + 0x0)
    3023:	71 18 01 00 00 00 00 00	r8 = *(u8 *)(r1 + 0x1)
    3024:	b7 02 00 00 01 00 00 00	r2 = 0x1
    3025:	b7 09 00 00 01 00 00 00	r9 = 0x1
    3026:	55 08 01 00 00 00 00 00	if r8 != 0x0 goto +0x1 <.text+0x5d80>
    3027:	b7 09 00 00 00 00 00 00	r9 = 0x0
    3028:	71 17 02 00 00 00 00 00	r7 = *(u8 *)(r1 + 0x2)
    3029:	b7 08 00 00 01 00 00 00	r8 = 0x1
    3030:	55 07 01 00 00 00 00 00	if r7 != 0x0 goto +0x1 <.text+0x5da0>
    3031:	b7 08 00 00 00 00 00 00	r8 = 0x0
    3032:	71 17 03 00 00 00 00 00	r7 = *(u8 *)(r1 + 0x3)
    3033:	55 07 d9 ff 00 00 00 00	if r7 != 0x0 goto -0x27 <.text+0x5c78>
    3034:	b7 02 00 00 00 00 00 00	r2 = 0x0
    3035:	05 00 d7 ff 00 00 00 00	goto -0x29 <.text+0x5c78>
    3036:	79 a1 f0 fb 00 00 00 00	r1 = *(u64 *)(r10 - 0x410)
    3037:	7b 1a c8 ff 00 00 00 00	*(u64 *)(r10 - 0x38) = r1
    3038:	18 02 00 00 f8 c6 9e 91 00 00 00 00 e1 75 87 c8	r2 = -0x37788a1e6e613908 ll
    3040:	7b 2a c0 ff 00 00 00 00	*(u64 *)(r10 - 0x40) = r2
    3041:	7a 0a d0 ff 00 00 00 00	*(u64 *)(r10 - 0x30) = 0x0
    3042:	bf a2 00 00 00 00 00 00	r2 = r10
    3043:	07 02 00 00 c0 ff ff ff	r2 += -0x40
    3044:	7b 2a f0 ff 00 00 00 00	*(u64 *)(r10 - 0x10) = r2
    3045:	bf a2 00 00 00 00 00 00	r2 = r10
    3046:	07 02 00 00 18 fc ff ff	r2 += -0x3e8
    3047:	7b 2a e0 ff 00 00 00 00	*(u64 *)(r10 - 0x20) = r2
    3048:	79 a1 f8 fb 00 00 00 00	r1 = *(u64 *)(r10 - 0x408)
    3049:	7b 1a d8 ff 00 00 00 00	*(u64 *)(r10 - 0x28) = r1
    3050:	7a 0a f8 ff 18 00 00 00	*(u64 *)(r10 - 0x8) = 0x18
    3051:	7a 0a e8 ff 0d 00 00 00	*(u64 *)(r10 - 0x18) = 0xd
    3052:	bf a1 00 00 00 00 00 00	r1 = r10
    3053:	07 01 00 00 d8 ff ff ff	r1 += -0x28
    3054:	bf a2 00 00 00 00 00 00	r2 = r10
    3055:	07 02 00 00 e8 fc ff ff	r2 += -0x318
    3056:	b7 03 00 00 0d 00 00 00	r3 = 0xd
    3057:	b7 04 00 00 08 00 00 00	r4 = 0x8
    3058:	b7 05 00 00 00 00 00 00	r5 = 0x0
    3059:	85 10 00 00 ff ff ff ff	call -0x1
    3060:	79 a2 08 fc 00 00 00 00	r2 = *(u64 *)(r10 - 0x3f8)
    3061:	07 02 00 00 f3 ff ff ff	r2 += -0xd
    3062:	79 a1 10 fc 00 00 00 00	r1 = *(u64 *)(r10 - 0x3f0)
    3063:	7b 21 08 00 00 00 00 00	*(u64 *)(r1 + 0x8) = r2
    3064:	79 a2 00 fc 00 00 00 00	r2 = *(u64 *)(r10 - 0x400)
    3065:	07 02 00 00 68 00 00 00	r2 += 0x68
    3066:	7b 21 00 00 00 00 00 00	*(u64 *)(r1 + 0x0) = r2
    3067:	b7 00 00 00 6f 17 00 00	r0 = 0x176f
    3068:	95 00 00 00 00 00 00 00	exit
    3069:	b7 00 00 00 73 17 00 00	r0 = 0x1773
    3070:	79 27 08 00 00 00 00 00	r7 = *(u64 *)(r2 + 0x8)
    3071:	a5 07 68 01 0a 00 00 00	if r7 < 0xa goto +0x168 <.text+0x6a20>
    3072:	7b 1a e0 fc 00 00 00 00	*(u64 *)(r10 - 0x320) = r1
    3073:	7b 2a e8 fc 00 00 00 00	*(u64 *)(r10 - 0x318) = r2
    3074:	79 28 00 00 00 00 00 00	r8 = *(u64 *)(r2 + 0x0)
    3075:	79 86 00 00 00 00 00 00	r6 = *(u64 *)(r8 + 0x0)
    3076:	71 64 02 00 00 00 00 00	r4 = *(u8 *)(r6 + 0x2)
    3077:	71 65 01 00 00 00 00 00	r5 = *(u8 *)(r6 + 0x1)
    3078:	71 69 03 00 00 00 00 00	r9 = *(u8 *)(r6 + 0x3)
    3079:	79 60 50 00 00 00 00 00	r0 = *(u64 *)(r6 + 0x50)
    3080:	bf 62 00 00 00 00 00 00	r2 = r6
    3081:	07 02 00 00 28 00 00 00	r2 += 0x28
    3082:	7b 2a b0 fd 00 00 00 00	*(u64 *)(r10 - 0x250) = r2
    3083:	bf 62 00 00 00 00 00 00	r2 = r6
    3084:	07 02 00 00 58 00 00 00	r2 += 0x58
    3085:	7b 2a a8 fd 00 00 00 00	*(u64 *)(r10 - 0x258) = r2
    3086:	7b 0a a0 fd 00 00 00 00	*(u64 *)(r10 - 0x260) = r0
    3087:	bf 62 00 00 00 00 00 00	r2 = r6
    3088:	07 02 00 00 48 00 00 00	r2 += 0x48
    3089:	7b 2a 98 fd 00 00 00 00	*(u64 *)(r10 - 0x268) = r2
    3090:	07 06 00 00 08 00 00 00	r6 += 0x8
    3091:	7b 6a 90 fd 00 00 00 00	*(u64 *)(r10 - 0x270) = r6
    3092:	7b 6a f0 fc 00 00 00 00	*(u64 *)(r10 - 0x310) = r6
    3093:	b7 01 00 00 01 00 00 00	r1 = 0x1
    3094:	b7 00 00 00 01 00 00 00	r0 = 0x1
    3095:	55 09 01 00 00 00 00 00	if r9 != 0x0 goto +0x1 <.text+0x5fa8>
    3096:	b7 00 00 00 00 00 00 00	r0 = 0x0
    3097:	73 0a c2 fd 00 00 00 00	*(u8 *)(r10 - 0x23e) = r0
    3098:	b7 00 00 00 01 00 00 00	r0 = 0x1
    3099:	55 05 01 00 00 00 00 00	if r5 != 0x0 goto +0x1 <.text+0x5fc8>
    3100:	b7 00 00 00 00 00 00 00	r0 = 0x0
    3101:	73 0a c0 fd 00 00 00 00	*(u8 *)(r10 - 0x240) = r0
    3102:	73 0a f9 fc 00 00 00 00	*(u8 *)(r10 - 0x307) = r0
    3103:	b7 05 00 00 01 00 00 00	r5 = 0x1
    3104:	55 04 01 00 00 00 00 00	if r4 != 0x0 goto +0x1 <.text+0x5ff0>
    3105:	b7 05 00 00 00 00 00 00	r5 = 0x0
    3106:	73 5a c1 fd 00 00 00 00	*(u8 *)(r10 - 0x23f) = r5
    3107:	73 5a f8 fc 00 00 00 00	*(u8 *)(r10 - 0x308) = r5
    3108:	7a 0a b8 fd 00 00 00 00	*(u64 *)(r10 - 0x248) = 0x0
    3109:	79 82 08 00 00 00 00 00	r2 = *(u64 *)(r8 + 0x8)
    3110:	71 24 02 00 00 00 00 00	r4 = *(u8 *)(r2 + 0x2)
    3111:	71 25 01 00 00 00 00 00	r5 = *(u8 *)(r2 + 0x1)
    3112:	71 26 03 00 00 00 00 00	r6 = *(u8 *)(r2 + 0x3)
    3113:	79 29 50 00 00 00 00 00	r9 = *(u64 *)(r2 + 0x50)
    3114:	bf 20 00 00 00 00 00 00	r0 = r2
    3115:	07 00 00 00 28 00 00 00	r0 += 0x28
    3116:	7b 0a e8 fd 00 00 00 00	*(u64 *)(r10 - 0x218) = r0
    3117:	bf 20 00 00 00 00 00 00	r0 = r2
    3118:	07 00 00 00 58 00 00 00	r0 += 0x58
    3119:	7b 0a e0 fd 00 00 00 00	*(u64 *)(r10 - 0x220) = r0
    3120:	7b 9a d8 fd 00 00 00 00	*(u64 *)(r10 - 0x228) = r9
    3121:	bf 20 00 00 00 00 00 00	r0 = r2
    3122:	07 00 00 00 48 00 00 00	r0 += 0x48
    3123:	7b 0a d0 fd 00 00 00 00	*(u64 *)(r10 - 0x230) = r0
    3124:	07 02 00 00 08 00 00 00	r2 += 0x8
    3125:	7b 2a c8 fd 00 00 00 00	*(u64 *)(r10 - 0x238) = r2
    3126:	7b 2a 00 fd 00 00 00 00	*(u64 *)(r10 - 0x300) = r2
    3127:	b7 00 00 00 01 00 00 00	r0 = 0x1
    3128:	55 06 01 00 00 00 00 00	if r6 != 0x0 goto +0x1 <.text+0x60b0>
    3129:	b7 00 00 00 00 00 00 00	r0 = 0x0
    3130:	73 0a fa fd 00 00 00 00	*(u8 *)(r10 - 0x206) = r0
    3131:	b7 00 00 00 01 00 00 00	r0 = 0x1
    3132:	55 05 01 00 00 00 00 00	if r5 != 0x0 goto +0x1 <.text+0x60d0>
    3133:	b7 00 00 00 00 00 00 00	r0 = 0x0
    3134:	73 0a f8 fd 00 00 00 00	*(u8 *)(r10 - 0x208) = r0
    3135:	73 0a 09 fd 00 00 00 00	*(u8 *)(r10 - 0x2f7) = r0
    3136:	b7 05 00 00 01 00 00 00	r5 = 0x1
    3137:	55 04 01 00 00 00 00 00	if r4 != 0x0 goto +0x1 <.text+0x60f8>
    3138:	b7 05 00 00 00 00 00 00	r5 = 0x0
    3139:	73 5a f9 fd 00 00 00 00	*(u8 *)(r10 - 0x207) = r5
    3140:	73 5a 08 fd 00 00 00 00	*(u8 *)(r10 - 0x2f8) = r5
    3141:	7a 0a f0 fd 00 00 00 00	*(u64 *)(r10 - 0x210) = 0x0
    3142:	79 82 10 00 00 00 00 00	r2 = *(u64 *)(r8 + 0x10)
    3143:	71 24 02 00 00 00 00 00	r4 = *(u8 *)(r2 + 0x2)
    3144:	71 25 01 00 00 00 00 00	r5 = *(u8 *)(r2 + 0x1)
    3145:	71 26 03 00 00 00 00 00	r6 = *(u8 *)(r2 + 0x3)
    3146:	79 20 50 00 00 00 00 00	r0 = *(u64 *)(r2 + 0x50)
    3147:	bf 29 00 00 00 00 00 00	r9 = r2
    3148:	07 09 00 00 28 00 00 00	r9 += 0x28
    3149:	7b 9a 20 fe 00 00 00 00	*(u64 *)(r10 - 0x1e0) = r9
    3150:	bf 29 00 00 00 00 00 00	r9 = r2
    3151:	07 09 00 00 58 00 00 00	r9 += 0x58
    3152:	7b 9a 18 fe 00 00 00 00	*(u64 *)(r10 - 0x1e8) = r9
    3153:	7b 0a 10 fe 00 00 00 00	*(u64 *)(r10 - 0x1f0) = r0
    3154:	bf 20 00 00 00 00 00 00	r0 = r2
    3155:	07 00 00 00 48 00 00 00	r0 += 0x48
    3156:	7b 0a 08 fe 00 00 00 00	*(u64 *)(r10 - 0x1f8) = r0
    3157:	07 02 00 00 08 00 00 00	r2 += 0x8
    3158:	7b 2a 00 fe 00 00 00 00	*(u64 *)(r10 - 0x200) = r2
    3159:	7b 2a 10 fd 00 00 00 00	*(u64 *)(r10 - 0x2f0) = r2
    3160:	b7 00 00 00 01 00 00 00	r0 = 0x1
    3161:	55 06 01 00 00 00 00 00	if r6 != 0x0 goto +0x1 <.text+0x61b8>
    3162:	b7 00 00 00 00 00 00 00	r0 = 0x0
    3163:	73 0a 32 fe 00 00 00 00	*(u8 *)(r10 - 0x1ce) = r0
    3164:	b7 00 00 00 01 00 00 00	r0 = 0x1
    3165:	55 05 01 00 00 00 00 00	if r5 != 0x0 goto +0x1 <.text+0x61d8>
    3166:	b7 00 00 00 00 00 00 00	r0 = 0x0
    3167:	73 0a 30 fe 00 00 00 00	*(u8 *)(r10 - 0x1d0) = r0
    3168:	73 0a 19 fd 00 00 00 00	*(u8 *)(r10 - 0x2e7) = r0
    3169:	b7 05 00 00 01 00 00 00	r5 = 0x1
    3170:	55 04 01 00 00 00 00 00	if r4 != 0x0 goto +0x1 <.text+0x6200>
    3171:	b7 05 00 00 00 00 00 00	r5 = 0x0
    3172:	73 5a 31 fe 00 00 00 00	*(u8 *)(r10 - 0x1cf) = r5
    3173:	73 5a 18 fd 00 00 00 00	*(u8 *)(r10 - 0x2e8) = r5
    3174:	7a 0a 28 fe 00 00 00 00	*(u64 *)(r10 - 0x1d8) = 0x0
    3175:	79 82 18 00 00 00 00 00	r2 = *(u64 *)(r8 + 0x18)
    3176:	71 24 02 00 00 00 00 00	r4 = *(u8 *)(r2 + 0x2)
    3177:	71 25 01 00 00 00 00 00	r5 = *(u8 *)(r2 + 0x1)
    3178:	71 26 03 00 00 00 00 00	r6 = *(u8 *)(r2 + 0x3)
    3179:	79 20 50 00 00 00 00 00	r0 = *(u64 *)(r2 + 0x50)
    3180:	bf 29 00 00 00 00 00 00	r9 = r2
    3181:	07 09 00 00 28 00 00 00	r9 += 0x28
    3182:	7b 9a 58 fe 00 00 00 00	*(u64 *)(r10 - 0x1a8) = r9
    3183:	bf 29 00 00 00 00 00 00	r9 = r2
    3184:	07 09 00 00 58 00 00 00	r9 += 0x58
    3185:	7b 9a 50 fe 00 00 00 00	*(u64 *)(r10 - 0x1b0) = r9
    3186:	7b 0a 48 fe 00 00 00 00	*(u64 *)(r10 - 0x1b8) = r0
    3187:	bf 20 00 00 00 00 00 00	r0 = r2
    3188:	07 00 00 00 48 00 00 00	r0 += 0x48
    3189:	7b 0a 40 fe 00 00 00 00	*(u64 *)(r10 - 0x1c0) = r0
    3190:	07 02 00 00 08 00 00 00	r2 += 0x8
    3191:	7b 2a 38 fe 00 00 00 00	*(u64 *)(r10 - 0x1c8) = r2
    3192:	7b 2a 20 fd 00 00 00 00	*(u64 *)(r10 - 0x2e0) = r2
    3193:	b7 00 00 00 01 00 00 00	r0 = 0x1
    3194:	55 06 01 00 00 00 00 00	if r6 != 0x0 goto +0x1 <.text+0x62c0>
    3195:	b7 00 00 00 00 00 00 00	r0 = 0x0
    3196:	73 0a 6a fe 00 00 00 00	*(u8 *)(r10 - 0x196) = r0
    3197:	b7 00 00 00 01 00 00 00	r0 = 0x1
    3198:	55 05 01 00 00 00 00 00	if r5 != 0x0 goto +0x1 <.text+0x62e0>
    3199:	b7 00 00 00 00 00 00 00	r0 = 0x0
    3200:	73 0a 68 fe 00 00 00 00	*(u8 *)(r10 - 0x198) = r0
    3201:	73 0a 29 fd 00 00 00 00	*(u8 *)(r10 - 0x2d7) = r0
    3202:	b7 05 00 00 01 00 00 00	r5 = 0x1
    3203:	55 04 01 00 00 00 00 00	if r4 != 0x0 goto +0x1 <.text+0x6308>
    3204:	b7 05 00 00 00 00 00 00	r5 = 0x0
    3205:	73 5a 69 fe 00 00 00 00	*(u8 *)(r10 - 0x197) = r5
    3206:	73 5a 28 fd 00 00 00 00	*(u8 *)(r10 - 0x2d8) = r5
    3207:	7a 0a 60 fe 00 00 00 00	*(u64 *)(r10 - 0x1a0) = 0x0
    3208:	79 82 20 00 00 00 00 00	r2 = *(u64 *)(r8 + 0x20)
    3209:	71 24 02 00 00 00 00 00	r4 = *(u8 *)(r2 + 0x2)
    3210:	71 25 01 00 00 00 00 00	r5 = *(u8 *)(r2 + 0x1)
    3211:	71 26 03 00 00 00 00 00	r6 = *(u8 *)(r2 + 0x3)
    3212:	79 20 50 00 00 00 00 00	r0 = *(u64 *)(r2 + 0x50)
    3213:	bf 29 00 00 00 00 00 00	r9 = r2
    3214:	07 09 00 00 28 00 00 00	r9 += 0x28
    3215:	7b 9a 90 fe 00 00 00 00	*(u64 *)(r10 - 0x170) = r9
    3216:	bf 29 00 00 00 00 00 00	r9 = r2
    3217:	07 09 00 00 58 00 00 00	r9 += 0x58
    3218:	7b 9a 88 fe 00 00 00 00	*(u64 *)(r10 - 0x178) = r9
    3219:	7b 0a 80 fe 00 00 00 00	*(u64 *)(r10 - 0x180) = r0
    3220:	bf 20 00 00 00 00 00 00	r0 = r2
    3221:	07 00 00 00 48 00 00 00	r0 += 0x48
    3222:	7b 0a 78 fe 00 00 00 00	*(u64 *)(r10 - 0x188) = r0
    3223:	07 02 00 00 08 00 00 00	r2 += 0x8
    3224:	7b 2a 70 fe 00 00 00 00	*(u64 *)(r10 - 0x190) = r2
    3225:	7b 2a 30 fd 00 00 00 00	*(u64 *)(r10 - 0x2d0) = r2
    3226:	b7 00 00 00 01 00 00 00	r0 = 0x1
    3227:	55 06 01 00 00 00 00 00	if r6 != 0x0 goto +0x1 <.text+0x63c8>
    3228:	b7 00 00 00 00 00 00 00	r0 = 0x0
    3229:	73 0a a2 fe 00 00 00 00	*(u8 *)(r10 - 0x15e) = r0
    3230:	b7 00 00 00 01 00 00 00	r0 = 0x1
    3231:	55 05 01 00 00 00 00 00	if r5 != 0x0 goto +0x1 <.text+0x63e8>
    3232:	b7 00 00 00 00 00 00 00	r0 = 0x0
    3233:	73 0a a0 fe 00 00 00 00	*(u8 *)(r10 - 0x160) = r0
    3234:	73 0a 39 fd 00 00 00 00	*(u8 *)(r10 - 0x2c7) = r0
    3235:	b7 05 00 00 01 00 00 00	r5 = 0x1
    3236:	55 04 01 00 00 00 00 00	if r4 != 0x0 goto +0x1 <.text+0x6410>
    3237:	b7 05 00 00 00 00 00 00	r5 = 0x0
    3238:	73 5a a1 fe 00 00 00 00	*(u8 *)(r10 - 0x15f) = r5
    3239:	73 5a 38 fd 00 00 00 00	*(u8 *)(r10 - 0x2c8) = r5
    3240:	7a 0a 98 fe 00 00 00 00	*(u64 *)(r10 - 0x168) = 0x0
    3241:	79 82 28 00 00 00 00 00	r2 = *(u64 *)(r8 + 0x28)
    3242:	71 24 02 00 00 00 00 00	r4 = *(u8 *)(r2 + 0x2)
    3243:	71 25 01 00 00 00 00 00	r5 = *(u8 *)(r2 + 0x1)
    3244:	71 26 03 00 00 00 00 00	r6 = *(u8 *)(r2 + 0x3)
    3245:	79 20 50 00 00 00 00 00	r0 = *(u64 *)(r2 + 0x50)
    3246:	bf 29 00 00 00 00 00 00	r9 = r2
    3247:	07 09 00 00 28 00 00 00	r9 += 0x28
    3248:	7b 9a c8 fe 00 00 00 00	*(u64 *)(r10 - 0x138) = r9
    3249:	bf 29 00 00 00 00 00 00	r9 = r2
    3250:	07 09 00 00 58 00 00 00	r9 += 0x58
    3251:	7b 9a c0 fe 00 00 00 00	*(u64 *)(r10 - 0x140) = r9
    3252:	7b 0a b8 fe 00 00 00 00	*(u64 *)(r10 - 0x148) = r0
    3253:	bf 20 00 00 00 00 00 00	r0 = r2
    3254:	07 00 00 00 48 00 00 00	r0 += 0x48
    3255:	7b 0a b0 fe 00 00 00 00	*(u64 *)(r10 - 0x150) = r0
    3256:	07 02 00 00 08 00 00 00	r2 += 0x8
    3257:	7b 2a a8 fe 00 00 00 00	*(u64 *)(r10 - 0x158) = r2
    3258:	7b 2a 40 fd 00 00 00 00	*(u64 *)(r10 - 0x2c0) = r2
    3259:	b7 00 00 00 01 00 00 00	r0 = 0x1
    3260:	55 06 01 00 00 00 00 00	if r6 != 0x0 goto +0x1 <.text+0x64d0>
    3261:	b7 00 00 00 00 00 00 00	r0 = 0x0
    3262:	73 0a da fe 00 00 00 00	*(u8 *)(r10 - 0x126) = r0
    3263:	b7 00 00 00 01 00 00 00	r0 = 0x1
    3264:	55 05 01 00 00 00 00 00	if r5 != 0x0 goto +0x1 <.text+0x64f0>
    3265:	b7 00 00 00 00 00 00 00	r0 = 0x0
    3266:	73 0a d8 fe 00 00 00 00	*(u8 *)(r10 - 0x128) = r0
    3267:	73 0a 49 fd 00 00 00 00	*(u8 *)(r10 - 0x2b7) = r0
    3268:	b7 05 00 00 01 00 00 00	r5 = 0x1
    3269:	55 04 01 00 00 00 00 00	if r4 != 0x0 goto +0x1 <.text+0x6518>
    3270:	b7 05 00 00 00 00 00 00	r5 = 0x0
    3271:	73 5a d9 fe 00 00 00 00	*(u8 *)(r10 - 0x127) = r5
    3272:	73 5a 48 fd 00 00 00 00	*(u8 *)(r10 - 0x2b8) = r5
    3273:	7a 0a d0 fe 00 00 00 00	*(u64 *)(r10 - 0x130) = 0x0
    3274:	79 82 30 00 00 00 00 00	r2 = *(u64 *)(r8 + 0x30)
    3275:	71 24 02 00 00 00 00 00	r4 = *(u8 *)(r2 + 0x2)
    3276:	71 25 01 00 00 00 00 00	r5 = *(u8 *)(r2 + 0x1)
    3277:	71 26 03 00 00 00 00 00	r6 = *(u8 *)(r2 + 0x3)
    3278:	79 20 50 00 00 00 00 00	r0 = *(u64 *)(r2 + 0x50)
    3279:	bf 29 00 00 00 00 00 00	r9 = r2
    3280:	07 09 00 00 28 00 00 00	r9 += 0x28
    3281:	7b 9a 00 ff 00 00 00 00	*(u64 *)(r10 - 0x100) = r9
    3282:	bf 29 00 00 00 00 00 00	r9 = r2
    3283:	07 09 00 00 58 00 00 00	r9 += 0x58
    3284:	7b 9a f8 fe 00 00 00 00	*(u64 *)(r10 - 0x108) = r9
    3285:	7b 0a f0 fe 00 00 00 00	*(u64 *)(r10 - 0x110) = r0
    3286:	bf 20 00 00 00 00 00 00	r0 = r2
    3287:	07 00 00 00 48 00 00 00	r0 += 0x48
    3288:	7b 0a e8 fe 00 00 00 00	*(u64 *)(r10 - 0x118) = r0
    3289:	07 02 00 00 08 00 00 00	r2 += 0x8
    3290:	7b 2a e0 fe 00 00 00 00	*(u64 *)(r10 - 0x120) = r2
    3291:	7b 2a 50 fd 00 00 00 00	*(u64 *)(r10 - 0x2b0) = r2
    3292:	b7 00 00 00 01 00 00 00	r0 = 0x1
    3293:	55 06 01 00 00 00 00 00	if r6 != 0x0 goto +0x1 <.text+0x65d8>
    3294:	b7 00 00 00 00 00 00 00	r0 = 0x0
    3295:	73 0a 12 ff 00 00 00 00	*(u8 *)(r10 - 0xee) = r0
    3296:	b7 00 00 00 01 00 00 00	r0 = 0x1
    3297:	55 05 01 00 00 00 00 00	if r5 != 0x0 goto +0x1 <.text+0x65f8>
    3298:	b7 00 00 00 00 00 00 00	r0 = 0x0
    3299:	73 0a 10 ff 00 00 00 00	*(u8 *)(r10 - 0xf0) = r0
    3300:	73 0a 59 fd 00 00 00 00	*(u8 *)(r10 - 0x2a7) = r0
    3301:	b7 05 00 00 01 00 00 00	r5 = 0x1
    3302:	55 04 01 00 00 00 00 00	if r4 != 0x0 goto +0x1 <.text+0x6620>
    3303:	b7 05 00 00 00 00 00 00	r5 = 0x0
    3304:	73 5a 11 ff 00 00 00 00	*(u8 *)(r10 - 0xef) = r5
    3305:	73 5a 58 fd 00 00 00 00	*(u8 *)(r10 - 0x2a8) = r5
    3306:	7a 0a 08 ff 00 00 00 00	*(u64 *)(r10 - 0xf8) = 0x0
    3307:	79 82 38 00 00 00 00 00	r2 = *(u64 *)(r8 + 0x38)
    3308:	71 24 02 00 00 00 00 00	r4 = *(u8 *)(r2 + 0x2)
    3309:	71 25 01 00 00 00 00 00	r5 = *(u8 *)(r2 + 0x1)
    3310:	71 26 03 00 00 00 00 00	r6 = *(u8 *)(r2 + 0x3)
    3311:	79 20 50 00 00 00 00 00	r0 = *(u64 *)(r2 + 0x50)
    3312:	bf 29 00 00 00 00 00 00	r9 = r2
    3313:	07 09 00 00 28 00 00 00	r9 += 0x28
    3314:	7b 9a 38 ff 00 00 00 00	*(u64 *)(r10 - 0xc8) = r9
    3315:	bf 29 00 00 00 00 00 00	r9 = r2
    3316:	07 09 00 00 58 00 00 00	r9 += 0x58
    3317:	7b 9a 30 ff 00 00 00 00	*(u64 *)(r10 - 0xd0) = r9
    3318:	7b 0a 28 ff 00 00 00 00	*(u64 *)(r10 - 0xd8) = r0
    3319:	bf 20 00 00 00 00 00 00	r0 = r2
    3320:	07 00 00 00 48 00 00 00	r0 += 0x48
    3321:	7b 0a 20 ff 00 00 00 00	*(u64 *)(r10 - 0xe0) = r0
    3322:	07 02 00 00 08 00 00 00	r2 += 0x8
    3323:	7b 2a 18 ff 00 00 00 00	*(u64 *)(r10 - 0xe8) = r2
    3324:	7b 2a 60 fd 00 00 00 00	*(u64 *)(r10 - 0x2a0) = r2
    3325:	b7 00 00 00 01 00 00 00	r0 = 0x1
    3326:	55 06 01 00 00 00 00 00	if r6 != 0x0 goto +0x1 <.text+0x66e0>
    3327:	b7 00 00 00 00 00 00 00	r0 = 0x0
    3328:	73 0a 4a ff 00 00 00 00	*(u8 *)(r10 - 0xb6) = r0
    3329:	b7 00 00 00 01 00 00 00	r0 = 0x1
    3330:	55 05 01 00 00 00 00 00	if r5 != 0x0 goto +0x1 <.text+0x6700>
    3331:	b7 00 00 00 00 00 00 00	r0 = 0x0
    3332:	73 0a 48 ff 00 00 00 00	*(u8 *)(r10 - 0xb8) = r0
    3333:	73 0a 69 fd 00 00 00 00	*(u8 *)(r10 - 0x297) = r0
    3334:	b7 05 00 00 01 00 00 00	r5 = 0x1
    3335:	55 04 01 00 00 00 00 00	if r4 != 0x0 goto +0x1 <.text+0x6728>
    3336:	b7 05 00 00 00 00 00 00	r5 = 0x0
    3337:	73 5a 49 ff 00 00 00 00	*(u8 *)(r10 - 0xb7) = r5
    3338:	73 5a 68 fd 00 00 00 00	*(u8 *)(r10 - 0x298) = r5
    3339:	7a 0a 40 ff 00 00 00 00	*(u64 *)(r10 - 0xc0) = 0x0
    3340:	79 82 40 00 00 00 00 00	r2 = *(u64 *)(r8 + 0x40)
    3341:	71 24 02 00 00 00 00 00	r4 = *(u8 *)(r2 + 0x2)
    3342:	71 25 01 00 00 00 00 00	r5 = *(u8 *)(r2 + 0x1)
    3343:	71 26 03 00 00 00 00 00	r6 = *(u8 *)(r2 + 0x3)
    3344:	79 20 50 00 00 00 00 00	r0 = *(u64 *)(r2 + 0x50)
    3345:	bf 29 00 00 00 00 00 00	r9 = r2
    3346:	07 09 00 00 28 00 00 00	r9 += 0x28
    3347:	7b 9a 70 ff 00 00 00 00	*(u64 *)(r10 - 0x90) = r9
    3348:	bf 29 00 00 00 00 00 00	r9 = r2
    3349:	07 09 00 00 58 00 00 00	r9 += 0x58
    3350:	7b 9a 68 ff 00 00 00 00	*(u64 *)(r10 - 0x98) = r9
    3351:	7b 0a 60 ff 00 00 00 00	*(u64 *)(r10 - 0xa0) = r0
    3352:	bf 20 00 00 00 00 00 00	r0 = r2
    3353:	07 00 00 00 48 00 00 00	r0 += 0x48
    3354:	7b 0a 58 ff 00 00 00 00	*(u64 *)(r10 - 0xa8) = r0
    3355:	07 02 00 00 08 00 00 00	r2 += 0x8
    3356:	7b 2a 50 ff 00 00 00 00	*(u64 *)(r10 - 0xb0) = r2
    3357:	7b 2a 70 fd 00 00 00 00	*(u64 *)(r10 - 0x290) = r2
    3358:	b7 00 00 00 01 00 00 00	r0 = 0x1
    3359:	55 06 01 00 00 00 00 00	if r6 != 0x0 goto +0x1 <.text+0x67e8>
    3360:	b7 00 00 00 00 00 00 00	r0 = 0x0
    3361:	73 0a 82 ff 00 00 00 00	*(u8 *)(r10 - 0x7e) = r0
    3362:	b7 00 00 00 01 00 00 00	r0 = 0x1
    3363:	55 05 01 00 00 00 00 00	if r5 != 0x0 goto +0x1 <.text+0x6808>
    3364:	b7 00 00 00 00 00 00 00	r0 = 0x0
    3365:	73 0a 80 ff 00 00 00 00	*(u8 *)(r10 - 0x80) = r0
    3366:	73 0a 79 fd 00 00 00 00	*(u8 *)(r10 - 0x287) = r0
    3367:	b7 05 00 00 01 00 00 00	r5 = 0x1
    3368:	55 04 01 00 00 00 00 00	if r4 != 0x0 goto +0x1 <.text+0x6830>
    3369:	b7 05 00 00 00 00 00 00	r5 = 0x0
    3370:	73 5a 81 ff 00 00 00 00	*(u8 *)(r10 - 0x7f) = r5
    3371:	73 5a 78 fd 00 00 00 00	*(u8 *)(r10 - 0x288) = r5
    3372:	7a 0a 78 ff 00 00 00 00	*(u64 *)(r10 - 0x88) = 0x0
    3373:	79 82 48 00 00 00 00 00	r2 = *(u64 *)(r8 + 0x48)
    3374:	71 24 02 00 00 00 00 00	r4 = *(u8 *)(r2 + 0x2)
    3375:	71 25 01 00 00 00 00 00	r5 = *(u8 *)(r2 + 0x1)
    3376:	71 26 03 00 00 00 00 00	r6 = *(u8 *)(r2 + 0x3)
    3377:	79 20 50 00 00 00 00 00	r0 = *(u64 *)(r2 + 0x50)
    3378:	bf 29 00 00 00 00 00 00	r9 = r2
    3379:	07 09 00 00 28 00 00 00	r9 += 0x28
    3380:	7b 9a a8 ff 00 00 00 00	*(u64 *)(r10 - 0x58) = r9
    3381:	bf 29 00 00 00 00 00 00	r9 = r2
    3382:	07 09 00 00 58 00 00 00	r9 += 0x58
    3383:	7b 9a a0 ff 00 00 00 00	*(u64 *)(r10 - 0x60) = r9
    3384:	7b 0a 98 ff 00 00 00 00	*(u64 *)(r10 - 0x68) = r0
    3385:	bf 20 00 00 00 00 00 00	r0 = r2
    3386:	07 00 00 00 48 00 00 00	r0 += 0x48
    3387:	7b 0a 90 ff 00 00 00 00	*(u64 *)(r10 - 0x70) = r0
    3388:	07 02 00 00 08 00 00 00	r2 += 0x8
    3389:	7b 2a 88 ff 00 00 00 00	*(u64 *)(r10 - 0x78) = r2
    3390:	7b 2a 80 fd 00 00 00 00	*(u64 *)(r10 - 0x280) = r2
    3391:	b7 00 00 00 01 00 00 00	r0 = 0x1
    3392:	55 06 01 00 00 00 00 00	if r6 != 0x0 goto +0x1 <.text+0x68f0>
    3393:	b7 00 00 00 00 00 00 00	r0 = 0x0
    3394:	73 0a ba ff 00 00 00 00	*(u8 *)(r10 - 0x46) = r0
    3395:	b7 00 00 00 01 00 00 00	r0 = 0x1
    3396:	55 05 01 00 00 00 00 00	if r5 != 0x0 goto +0x1 <.text+0x6910>
    3397:	b7 00 00 00 00 00 00 00	r0 = 0x0
    3398:	73 0a b8 ff 00 00 00 00	*(u8 *)(r10 - 0x48) = r0
    3399:	73 0a 89 fd 00 00 00 00	*(u8 *)(r10 - 0x277) = r0
    3400:	55 04 01 00 00 00 00 00	if r4 != 0x0 goto +0x1 <.text+0x6930>
    3401:	b7 01 00 00 00 00 00 00	r1 = 0x0
    3402:	73 1a b9 ff 00 00 00 00	*(u8 *)(r10 - 0x47) = r1
    3403:	73 1a 88 fd 00 00 00 00	*(u8 *)(r10 - 0x278) = r1
    3404:	7a 0a b0 ff 00 00 00 00	*(u64 *)(r10 - 0x50) = 0x0
    3405:	7b 3a c8 ff 00 00 00 00	*(u64 *)(r10 - 0x38) = r3
    3406:	7a 0a d0 ff 00 00 00 00	*(u64 *)(r10 - 0x30) = 0x0
    3407:	72 0a c7 ff 01 00 00 00	*(u8 *)(r10 - 0x39) = 0x1
    3408:	bf a1 00 00 00 00 00 00	r1 = r10
    3409:	07 01 00 00 c7 ff ff ff	r1 += -0x39
    3410:	7b 1a f0 ff 00 00 00 00	*(u64 *)(r10 - 0x10) = r1
    3411:	bf a1 00 00 00 00 00 00	r1 = r10
    3412:	07 01 00 00 f0 fc ff ff	r1 += -0x310
    3413:	7b 1a e0 ff 00 00 00 00	*(u64 *)(r10 - 0x20) = r1
    3414:	79 a1 e0 fc 00 00 00 00	r1 = *(u64 *)(r10 - 0x320)
    3415:	7b 1a d8 ff 00 00 00 00	*(u64 *)(r10 - 0x28) = r1
    3416:	7a 0a f8 ff 18 00 00 00	*(u64 *)(r10 - 0x8) = 0x18
    3417:	7a 0a e8 ff 0a 00 00 00	*(u64 *)(r10 - 0x18) = 0xa
    3418:	bf a1 00 00 00 00 00 00	r1 = r10
    3419:	07 01 00 00 d8 ff ff ff	r1 += -0x28
    3420:	bf a2 00 00 00 00 00 00	r2 = r10
    3421:	07 02 00 00 90 fd ff ff	r2 += -0x270
    3422:	b7 03 00 00 0a 00 00 00	r3 = 0xa
    3423:	b7 04 00 00 08 00 00 00	r4 = 0x8
    3424:	b7 05 00 00 00 00 00 00	r5 = 0x0
    3425:	85 10 00 00 ff ff ff ff	call -0x1
    3426:	07 07 00 00 f6 ff ff ff	r7 += -0xa
    3427:	79 a1 e8 fc 00 00 00 00	r1 = *(u64 *)(r10 - 0x318)
    3428:	7b 71 08 00 00 00 00 00	*(u64 *)(r1 + 0x8) = r7
    3429:	07 08 00 00 50 00 00 00	r8 += 0x50
    3430:	7b 81 00 00 00 00 00 00	*(u64 *)(r1 + 0x0) = r8
    3431:	b7 00 00 00 6f 17 00 00	r0 = 0x176f
    3432:	95 00 00 00 00 00 00 00	exit
    3433:	b7 00 00 00 73 17 00 00	r0 = 0x1773
    3434:	bf a4 00 00 00 00 00 00	r4 = r10
    3435:	07 04 00 00 d0 fb ff ff	r4 += -0x430
    3436:	79 24 08 00 00 00 00 00	r4 = *(u64 *)(r2 + 0x8)
    3437:	a5 04 51 00 0e 00 00 00	if r4 < 0xe goto +0x51 <.text+0x6cd8>
    3438:	7b 3a a8 fb 00 00 00 00	*(u64 *)(r10 - 0x458) = r3
    3439:	7b 1a b0 fb 00 00 00 00	*(u64 *)(r10 - 0x450) = r1
    3440:	7b 4a c0 fb 00 00 00 00	*(u64 *)(r10 - 0x440) = r4
    3441:	b7 03 00 00 00 00 00 00	r3 = 0x0
    3442:	bf a4 00 00 00 00 00 00	r4 = r10
    3443:	07 04 00 00 d8 fb ff ff	r4 += -0x428
    3444:	7b 2a c8 fb 00 00 00 00	*(u64 *)(r10 - 0x438) = r2
    3445:	79 25 00 00 00 00 00 00	r5 = *(u64 *)(r2 + 0x0)
    3446:	7b 5a b8 fb 00 00 00 00	*(u64 *)(r10 - 0x448) = r5
    3447:	05 00 1b 00 00 00 00 00	goto +0x1b <.text+0x6b78>
    3448:	bf a7 00 00 00 00 00 00	r7 = r10
    3449:	07 07 00 00 b0 fc ff ff	r7 += -0x350
    3450:	0f 37 00 00 00 00 00 00	r7 += r3
    3451:	79 16 50 00 00 00 00 00	r6 = *(u64 *)(r1 + 0x50)
    3452:	bf 10 00 00 00 00 00 00	r0 = r1
    3453:	07 00 00 00 28 00 00 00	r0 += 0x28
    3454:	7b 07 20 00 00 00 00 00	*(u64 *)(r7 + 0x20) = r0
    3455:	bf 10 00 00 00 00 00 00	r0 = r1
    3456:	07 00 00 00 58 00 00 00	r0 += 0x58
    3457:	7b 07 18 00 00 00 00 00	*(u64 *)(r7 + 0x18) = r0
    3458:	7b 67 10 00 00 00 00 00	*(u64 *)(r7 + 0x10) = r6
    3459:	bf 10 00 00 00 00 00 00	r0 = r1
    3460:	07 00 00 00 48 00 00 00	r0 += 0x48
    3461:	7b 07 08 00 00 00 00 00	*(u64 *)(r7 + 0x8) = r0
    3462:	73 27 32 00 00 00 00 00	*(u8 *)(r7 + 0x32) = r2
    3463:	07 01 00 00 08 00 00 00	r1 += 0x8
    3464:	7b 17 00 00 00 00 00 00	*(u64 *)(r7 + 0x0) = r1
    3465:	73 87 31 00 00 00 00 00	*(u8 *)(r7 + 0x31) = r8
    3466:	73 97 30 00 00 00 00 00	*(u8 *)(r7 + 0x30) = r9
    3467:	7a 07 28 00 00 00 00 00	*(u64 *)(r7 + 0x28) = 0x0
    3468:	73 94 01 00 00 00 00 00	*(u8 *)(r4 + 0x1) = r9
    3469:	73 84 00 00 00 00 00 00	*(u8 *)(r4 + 0x0) = r8
    3470:	7b 14 f8 ff 00 00 00 00	*(u64 *)(r4 - 0x8) = r1
    3471:	07 04 00 00 10 00 00 00	r4 += 0x10
    3472:	07 05 00 00 08 00 00 00	r5 += 0x8
    3473:	07 03 00 00 38 00 00 00	r3 += 0x38
    3474:	15 03 0e 00 10 03 00 00	if r3 == 0x310 goto +0xe <.text+0x6be8>
    3475:	79 51 00 00 00 00 00 00	r1 = *(u64 *)(r5 + 0x0)
    3476:	71 18 01 00 00 00 00 00	r8 = *(u8 *)(r1 + 0x1)
    3477:	b7 02 00 00 01 00 00 00	r2 = 0x1
    3478:	b7 09 00 00 01 00 00 00	r9 = 0x1
    3479:	55 08 01 00 00 00 00 00	if r8 != 0x0 goto +0x1 <.text+0x6ba8>
    3480:	b7 09 00 00 00 00 00 00	r9 = 0x0
    3481:	71 17 02 00 00 00 00 00	r7 = *(u8 *)(r1 + 0x2)
    3482:	b7 08 00 00 01 00 00 00	r8 = 0x1
    3483:	55 07 01 00 00 00 00 00	if r7 != 0x0 goto +0x1 <.text+0x6bc8>
    3484:	b7 08 00 00 00 00 00 00	r8 = 0x0
    3485:	71 17 03 00 00 00 00 00	r7 = *(u8 *)(r1 + 0x3)
    3486:	55 07 d9 ff 00 00 00 00	if r7 != 0x0 goto -0x27 <.text+0x6aa0>
    3487:	b7 02 00 00 00 00 00 00	r2 = 0x0
    3488:	05 00 d7 ff 00 00 00 00	goto -0x29 <.text+0x6aa0>
    3489:	79 a1 a8 fb 00 00 00 00	r1 = *(u64 *)(r10 - 0x458)
    3490:	7b 1a c8 ff 00 00 00 00	*(u64 *)(r10 - 0x38) = r1
    3491:	7a 0a d0 ff 00 00 00 00	*(u64 *)(r10 - 0x30) = 0x0
    3492:	72 0a c7 ff 01 00 00 00	*(u8 *)(r10 - 0x39) = 0x1
    3493:	bf a2 00 00 00 00 00 00	r2 = r10
    3494:	07 02 00 00 c7 ff ff ff	r2 += -0x39
    3495:	7b 2a f0 ff 00 00 00 00	*(u64 *)(r10 - 0x10) = r2
    3496:	bf a2 00 00 00 00 00 00	r2 = r10
    3497:	07 02 00 00 d0 fb ff ff	r2 += -0x430
    3498:	7b 2a e0 ff 00 00 00 00	*(u64 *)(r10 - 0x20) = r2
    3499:	79 a1 b0 fb 00 00 00 00	r1 = *(u64 *)(r10 - 0x450)
    3500:	7b 1a d8 ff 00 00 00 00	*(u64 *)(r10 - 0x28) = r1
    3501:	7a 0a f8 ff 18 00 00 00	*(u64 *)(r10 - 0x8) = 0x18
    3502:	7a 0a e8 ff 0e 00 00 00	*(u64 *)(r10 - 0x18) = 0xe
    3503:	bf a1 00 00 00 00 00 00	r1 = r10
    3504:	07 01 00 00 d8 ff ff ff	r1 += -0x28
    3505:	bf a2 00 00 00 00 00 00	r2 = r10
    3506:	07 02 00 00 b0 fc ff ff	r2 += -0x350
    3507:	b7 03 00 00 0e 00 00 00	r3 = 0xe
    3508:	b7 04 00 00 08 00 00 00	r4 = 0x8
    3509:	b7 05 00 00 00 00 00 00	r5 = 0x0
    3510:	85 10 00 00 ff ff ff ff	call -0x1
    3511:	79 a2 c0 fb 00 00 00 00	r2 = *(u64 *)(r10 - 0x440)
    3512:	07 02 00 00 f2 ff ff ff	r2 += -0xe
    3513:	79 a1 c8 fb 00 00 00 00	r1 = *(u64 *)(r10 - 0x438)
    3514:	7b 21 08 00 00 00 00 00	*(u64 *)(r1 + 0x8) = r2
    3515:	79 a2 b8 fb 00 00 00 00	r2 = *(u64 *)(r10 - 0x448)
    3516:	07 02 00 00 70 00 00 00	r2 += 0x70
    3517:	7b 21 00 00 00 00 00 00	*(u64 *)(r1 + 0x0) = r2
    3518:	b7 00 00 00 6f 17 00 00	r0 = 0x176f
    3519:	95 00 00 00 00 00 00 00	exit
    3520:	b7 00 00 00 73 17 00 00	r0 = 0x1773
    3521:	79 27 08 00 00 00 00 00	r7 = *(u64 *)(r2 + 0x8)
    3522:	a5 07 47 01 09 00 00 00	if r7 < 0x9 goto +0x147 <.text+0x7730>
    3523:	7b 1a 28 fd 00 00 00 00	*(u64 *)(r10 - 0x2d8) = r1
    3524:	7b 2a 30 fd 00 00 00 00	*(u64 *)(r10 - 0x2d0) = r2
    3525:	79 28 00 00 00 00 00 00	r8 = *(u64 *)(r2 + 0x0)
    3526:	79 86 00 00 00 00 00 00	r6 = *(u64 *)(r8 + 0x0)
    3527:	71 64 02 00 00 00 00 00	r4 = *(u8 *)(r6 + 0x2)
    3528:	71 65 01 00 00 00 00 00	r5 = *(u8 *)(r6 + 0x1)
    3529:	71 69 03 00 00 00 00 00	r9 = *(u8 *)(r6 + 0x3)
    3530:	79 60 50 00 00 00 00 00	r0 = *(u64 *)(r6 + 0x50)
    3531:	bf 62 00 00 00 00 00 00	r2 = r6
    3532:	07 02 00 00 28 00 00 00	r2 += 0x28
    3533:	7b 2a e8 fd 00 00 00 00	*(u64 *)(r10 - 0x218) = r2
    3534:	bf 62 00 00 00 00 00 00	r2 = r6
    3535:	07 02 00 00 58 00 00 00	r2 += 0x58
    3536:	7b 2a e0 fd 00 00 00 00	*(u64 *)(r10 - 0x220) = r2
    3537:	7b 0a d8 fd 00 00 00 00	*(u64 *)(r10 - 0x228) = r0
    3538:	bf 62 00 00 00 00 00 00	r2 = r6
    3539:	07 02 00 00 48 00 00 00	r2 += 0x48
    3540:	7b 2a d0 fd 00 00 00 00	*(u64 *)(r10 - 0x230) = r2
    3541:	07 06 00 00 08 00 00 00	r6 += 0x8
    3542:	7b 6a c8 fd 00 00 00 00	*(u64 *)(r10 - 0x238) = r6
    3543:	7b 6a 38 fd 00 00 00 00	*(u64 *)(r10 - 0x2c8) = r6
    3544:	b7 01 00 00 01 00 00 00	r1 = 0x1
    3545:	b7 00 00 00 01 00 00 00	r0 = 0x1
    3546:	55 09 01 00 00 00 00 00	if r9 != 0x0 goto +0x1 <.text+0x6dc0>
    3547:	b7 00 00 00 00 00 00 00	r0 = 0x0
    3548:	73 0a fa fd 00 00 00 00	*(u8 *)(r10 - 0x206) = r0
    3549:	b7 00 00 00 01 00 00 00	r0 = 0x1
    3550:	55 05 01 00 00 00 00 00	if r5 != 0x0 goto +0x1 <.text+0x6de0>
    3551:	b7 00 00 00 00 00 00 00	r0 = 0x0
    3552:	73 0a f8 fd 00 00 00 00	*(u8 *)(r10 - 0x208) = r0
    3553:	73 0a 41 fd 00 00 00 00	*(u8 *)(r10 - 0x2bf) = r0
    3554:	b7 05 00 00 01 00 00 00	r5 = 0x1
    3555:	55 04 01 00 00 00 00 00	if r4 != 0x0 goto +0x1 <.text+0x6e08>
    3556:	b7 05 00 00 00 00 00 00	r5 = 0x0
    3557:	73 5a f9 fd 00 00 00 00	*(u8 *)(r10 - 0x207) = r5
    3558:	73 5a 40 fd 00 00 00 00	*(u8 *)(r10 - 0x2c0) = r5
    3559:	7a 0a f0 fd 00 00 00 00	*(u64 *)(r10 - 0x210) = 0x0
    3560:	79 82 08 00 00 00 00 00	r2 = *(u64 *)(r8 + 0x8)
    3561:	71 24 02 00 00 00 00 00	r4 = *(u8 *)(r2 + 0x2)
    3562:	71 25 01 00 00 00 00 00	r5 = *(u8 *)(r2 + 0x1)
    3563:	71 26 03 00 00 00 00 00	r6 = *(u8 *)(r2 + 0x3)
    3564:	79 29 50 00 00 00 00 00	r9 = *(u64 *)(r2 + 0x50)
    3565:	bf 20 00 00 00 00 00 00	r0 = r2
    3566:	07 00 00 00 28 00 00 00	r0 += 0x28
    3567:	7b 0a 20 fe 00 00 00 00	*(u64 *)(r10 - 0x1e0) = r0
    3568:	bf 20 00 00 00 00 00 00	r0 = r2
    3569:	07 00 00 00 58 00 00 00	r0 += 0x58
    3570:	7b 0a 18 fe 00 00 00 00	*(u64 *)(r10 - 0x1e8) = r0
    3571:	7b 9a 10 fe 00 00 00 00	*(u64 *)(r10 - 0x1f0) = r9
    3572:	bf 20 00 00 00 00 00 00	r0 = r2
    3573:	07 00 00 00 48 00 00 00	r0 += 0x48
    3574:	7b 0a 08 fe 00 00 00 00	*(u64 *)(r10 - 0x1f8) = r0
    3575:	07 02 00 00 08 00 00 00	r2 += 0x8
    3576:	7b 2a 00 fe 00 00 00 00	*(u64 *)(r10 - 0x200) = r2
    3577:	7b 2a 48 fd 00 00 00 00	*(u64 *)(r10 - 0x2b8) = r2
    3578:	b7 00 00 00 01 00 00 00	r0 = 0x1
    3579:	55 06 01 00 00 00 00 00	if r6 != 0x0 goto +0x1 <.text+0x6ec8>
    3580:	b7 00 00 00 00 00 00 00	r0 = 0x0
    3581:	73 0a 32 fe 00 00 00 00	*(u8 *)(r10 - 0x1ce) = r0
    3582:	b7 00 00 00 01 00 00 00	r0 = 0x1
    3583:	55 05 01 00 00 00 00 00	if r5 != 0x0 goto +0x1 <.text+0x6ee8>
    3584:	b7 00 00 00 00 00 00 00	r0 = 0x0
    3585:	73 0a 30 fe 00 00 00 00	*(u8 *)(r10 - 0x1d0) = r0
    3586:	73 0a 51 fd 00 00 00 00	*(u8 *)(r10 - 0x2af) = r0
    3587:	b7 05 00 00 01 00 00 00	r5 = 0x1
    3588:	55 04 01 00 00 00 00 00	if r4 != 0x0 goto +0x1 <.text+0x6f10>
    3589:	b7 05 00 00 00 00 00 00	r5 = 0x0
    3590:	73 5a 31 fe 00 00 00 00	*(u8 *)(r10 - 0x1cf) = r5
    3591:	73 5a 50 fd 00 00 00 00	*(u8 *)(r10 - 0x2b0) = r5
    3592:	7a 0a 28 fe 00 00 00 00	*(u64 *)(r10 - 0x1d8) = 0x0
    3593:	79 82 10 00 00 00 00 00	r2 = *(u64 *)(r8 + 0x10)
    3594:	71 24 02 00 00 00 00 00	r4 = *(u8 *)(r2 + 0x2)
    3595:	71 25 01 00 00 00 00 00	r5 = *(u8 *)(r2 + 0x1)
    3596:	71 26 03 00 00 00 00 00	r6 = *(u8 *)(r2 + 0x3)
    3597:	79 20 50 00 00 00 00 00	r0 = *(u64 *)(r2 + 0x50)
    3598:	bf 29 00 00 00 00 00 00	r9 = r2
    3599:	07 09 00 00 28 00 00 00	r9 += 0x28
    3600:	7b 9a 58 fe 00 00 00 00	*(u64 *)(r10 - 0x1a8) = r9
    3601:	bf 29 00 00 00 00 00 00	r9 = r2
    3602:	07 09 00 00 58 00 00 00	r9 += 0x58
    3603:	7b 9a 50 fe 00 00 00 00	*(u64 *)(r10 - 0x1b0) = r9
    3604:	7b 0a 48 fe 00 00 00 00	*(u64 *)(r10 - 0x1b8) = r0
    3605:	bf 20 00 00 00 00 00 00	r0 = r2
    3606:	07 00 00 00 48 00 00 00	r0 += 0x48
    3607:	7b 0a 40 fe 00 00 00 00	*(u64 *)(r10 - 0x1c0) = r0
    3608:	07 02 00 00 08 00 00 00	r2 += 0x8
    3609:	7b 2a 38 fe 00 00 00 00	*(u64 *)(r10 - 0x1c8) = r2
    3610:	7b 2a 58 fd 00 00 00 00	*(u64 *)(r10 - 0x2a8) = r2
    3611:	b7 00 00 00 01 00 00 00	r0 = 0x1
    3612:	55 06 01 00 00 00 00 00	if r6 != 0x0 goto +0x1 <.text+0x6fd0>
    3613:	b7 00 00 00 00 00 00 00	r0 = 0x0
    3614:	73 0a 6a fe 00 00 00 00	*(u8 *)(r10 - 0x196) = r0
    3615:	b7 00 00 00 01 00 00 00	r0 = 0x1
    3616:	55 05 01 00 00 00 00 00	if r5 != 0x0 goto +0x1 <.text+0x6ff0>
    3617:	b7 00 00 00 00 00 00 00	r0 = 0x0
    3618:	73 0a 68 fe 00 00 00 00	*(u8 *)(r10 - 0x198) = r0
    3619:	73 0a 61 fd 00 00 00 00	*(u8 *)(r10 - 0x29f) = r0
    3620:	b7 05 00 00 01 00 00 00	r5 = 0x1
    3621:	55 04 01 00 00 00 00 00	if r4 != 0x0 goto +0x1 <.text+0x7018>
    3622:	b7 05 00 00 00 00 00 00	r5 = 0x0
    3623:	73 5a 69 fe 00 00 00 00	*(u8 *)(r10 - 0x197) = r5
    3624:	73 5a 60 fd 00 00 00 00	*(u8 *)(r10 - 0x2a0) = r5
    3625:	7a 0a 60 fe 00 00 00 00	*(u64 *)(r10 - 0x1a0) = 0x0
    3626:	79 82 18 00 00 00 00 00	r2 = *(u64 *)(r8 + 0x18)
    3627:	71 24 02 00 00 00 00 00	r4 = *(u8 *)(r2 + 0x2)
    3628:	71 25 01 00 00 00 00 00	r5 = *(u8 *)(r2 + 0x1)
    3629:	71 26 03 00 00 00 00 00	r6 = *(u8 *)(r2 + 0x3)
    3630:	79 20 50 00 00 00 00 00	r0 = *(u64 *)(r2 + 0x50)
    3631:	bf 29 00 00 00 00 00 00	r9 = r2
    3632:	07 09 00 00 28 00 00 00	r9 += 0x28
    3633:	7b 9a 90 fe 00 00 00 00	*(u64 *)(r10 - 0x170) = r9
    3634:	bf 29 00 00 00 00 00 00	r9 = r2
    3635:	07 09 00 00 58 00 00 00	r9 += 0x58
    3636:	7b 9a 88 fe 00 00 00 00	*(u64 *)(r10 - 0x178) = r9
    3637:	7b 0a 80 fe 00 00 00 00	*(u64 *)(r10 - 0x180) = r0
    3638:	bf 20 00 00 00 00 00 00	r0 = r2
    3639:	07 00 00 00 48 00 00 00	r0 += 0x48
    3640:	7b 0a 78 fe 00 00 00 00	*(u64 *)(r10 - 0x188) = r0
    3641:	07 02 00 00 08 00 00 00	r2 += 0x8
    3642:	7b 2a 70 fe 00 00 00 00	*(u64 *)(r10 - 0x190) = r2
    3643:	7b 2a 68 fd 00 00 00 00	*(u64 *)(r10 - 0x298) = r2
    3644:	b7 00 00 00 01 00 00 00	r0 = 0x1
    3645:	55 06 01 00 00 00 00 00	if r6 != 0x0 goto +0x1 <.text+0x70d8>
    3646:	b7 00 00 00 00 00 00 00	r0 = 0x0
    3647:	73 0a a2 fe 00 00 00 00	*(u8 *)(r10 - 0x15e) = r0
    3648:	b7 00 00 00 01 00 00 00	r0 = 0x1
    3649:	55 05 01 00 00 00 00 00	if r5 != 0x0 goto +0x1 <.text+0x70f8>
    3650:	b7 00 00 00 00 00 00 00	r0 = 0x0
    3651:	73 0a a0 fe 00 00 00 00	*(u8 *)(r10 - 0x160) = r0
    3652:	73 0a 71 fd 00 00 00 00	*(u8 *)(r10 - 0x28f) = r0
    3653:	b7 05 00 00 01 00 00 00	r5 = 0x1
    3654:	55 04 01 00 00 00 00 00	if r4 != 0x0 goto +0x1 <.text+0x7120>
    3655:	b7 05 00 00 00 00 00 00	r5 = 0x0
    3656:	73 5a a1 fe 00 00 00 00	*(u8 *)(r10 - 0x15f) = r5
    3657:	73 5a 70 fd 00 00 00 00	*(u8 *)(r10 - 0x290) = r5
    3658:	7a 0a 98 fe 00 00 00 00	*(u64 *)(r10 - 0x168) = 0x0
    3659:	79 82 20 00 00 00 00 00	r2 = *(u64 *)(r8 + 0x20)
    3660:	71 24 02 00 00 00 00 00	r4 = *(u8 *)(r2 + 0x2)
    3661:	71 25 01 00 00 00 00 00	r5 = *(u8 *)(r2 + 0x1)
    3662:	71 26 03 00 00 00 00 00	r6 = *(u8 *)(r2 + 0x3)
    3663:	79 20 50 00 00 00 00 00	r0 = *(u64 *)(r2 + 0x50)
    3664:	bf 29 00 00 00 00 00 00	r9 = r2
    3665:	07 09 00 00 28 00 00 00	r9 += 0x28
    3666:	7b 9a c8 fe 00 00 00 00	*(u64 *)(r10 - 0x138) = r9
    3667:	bf 29 00 00 00 00 00 00	r9 = r2
    3668:	07 09 00 00 58 00 00 00	r9 += 0x58
    3669:	7b 9a c0 fe 00 00 00 00	*(u64 *)(r10 - 0x140) = r9
    3670:	7b 0a b8 fe 00 00 00 00	*(u64 *)(r10 - 0x148) = r0
    3671:	bf 20 00 00 00 00 00 00	r0 = r2
    3672:	07 00 00 00 48 00 00 00	r0 += 0x48
    3673:	7b 0a b0 fe 00 00 00 00	*(u64 *)(r10 - 0x150) = r0
    3674:	07 02 00 00 08 00 00 00	r2 += 0x8
    3675:	7b 2a a8 fe 00 00 00 00	*(u64 *)(r10 - 0x158) = r2
    3676:	7b 2a 78 fd 00 00 00 00	*(u64 *)(r10 - 0x288) = r2
    3677:	b7 00 00 00 01 00 00 00	r0 = 0x1
    3678:	55 06 01 00 00 00 00 00	if r6 != 0x0 goto +0x1 <.text+0x71e0>
    3679:	b7 00 00 00 00 00 00 00	r0 = 0x0
    3680:	73 0a da fe 00 00 00 00	*(u8 *)(r10 - 0x126) = r0
    3681:	b7 00 00 00 01 00 00 00	r0 = 0x1
    3682:	55 05 01 00 00 00 00 00	if r5 != 0x0 goto +0x1 <.text+0x7200>
    3683:	b7 00 00 00 00 00 00 00	r0 = 0x0
    3684:	73 0a d8 fe 00 00 00 00	*(u8 *)(r10 - 0x128) = r0
    3685:	73 0a 81 fd 00 00 00 00	*(u8 *)(r10 - 0x27f) = r0
    3686:	b7 05 00 00 01 00 00 00	r5 = 0x1
    3687:	55 04 01 00 00 00 00 00	if r4 != 0x0 goto +0x1 <.text+0x7228>
    3688:	b7 05 00 00 00 00 00 00	r5 = 0x0
    3689:	73 5a d9 fe 00 00 00 00	*(u8 *)(r10 - 0x127) = r5
    3690:	73 5a 80 fd 00 00 00 00	*(u8 *)(r10 - 0x280) = r5
    3691:	7a 0a d0 fe 00 00 00 00	*(u64 *)(r10 - 0x130) = 0x0
    3692:	79 82 28 00 00 00 00 00	r2 = *(u64 *)(r8 + 0x28)
    3693:	71 24 02 00 00 00 00 00	r4 = *(u8 *)(r2 + 0x2)
    3694:	71 25 01 00 00 00 00 00	r5 = *(u8 *)(r2 + 0x1)
    3695:	71 26 03 00 00 00 00 00	r6 = *(u8 *)(r2 + 0x3)
    3696:	79 20 50 00 00 00 00 00	r0 = *(u64 *)(r2 + 0x50)
    3697:	bf 29 00 00 00 00 00 00	r9 = r2
    3698:	07 09 00 00 28 00 00 00	r9 += 0x28
    3699:	7b 9a 00 ff 00 00 00 00	*(u64 *)(r10 - 0x100) = r9
    3700:	bf 29 00 00 00 00 00 00	r9 = r2
    3701:	07 09 00 00 58 00 00 00	r9 += 0x58
    3702:	7b 9a f8 fe 00 00 00 00	*(u64 *)(r10 - 0x108) = r9
    3703:	7b 0a f0 fe 00 00 00 00	*(u64 *)(r10 - 0x110) = r0
    3704:	bf 20 00 00 00 00 00 00	r0 = r2
    3705:	07 00 00 00 48 00 00 00	r0 += 0x48
    3706:	7b 0a e8 fe 00 00 00 00	*(u64 *)(r10 - 0x118) = r0
    3707:	07 02 00 00 08 00 00 00	r2 += 0x8
    3708:	7b 2a e0 fe 00 00 00 00	*(u64 *)(r10 - 0x120) = r2
    3709:	7b 2a 88 fd 00 00 00 00	*(u64 *)(r10 - 0x278) = r2
    3710:	b7 00 00 00 01 00 00 00	r0 = 0x1
    3711:	55 06 01 00 00 00 00 00	if r6 != 0x0 goto +0x1 <.text+0x72e8>
    3712:	b7 00 00 00 00 00 00 00	r0 = 0x0
    3713:	73 0a 12 ff 00 00 00 00	*(u8 *)(r10 - 0xee) = r0
    3714:	b7 00 00 00 01 00 00 00	r0 = 0x1
    3715:	55 05 01 00 00 00 00 00	if r5 != 0x0 goto +0x1 <.text+0x7308>
    3716:	b7 00 00 00 00 00 00 00	r0 = 0x0
    3717:	73 0a 10 ff 00 00 00 00	*(u8 *)(r10 - 0xf0) = r0
    3718:	73 0a 91 fd 00 00 00 00	*(u8 *)(r10 - 0x26f) = r0
    3719:	b7 05 00 00 01 00 00 00	r5 = 0x1
    3720:	55 04 01 00 00 00 00 00	if r4 != 0x0 goto +0x1 <.text+0x7330>
    3721:	b7 05 00 00 00 00 00 00	r5 = 0x0
    3722:	73 5a 11 ff 00 00 00 00	*(u8 *)(r10 - 0xef) = r5
    3723:	73 5a 90 fd 00 00 00 00	*(u8 *)(r10 - 0x270) = r5
    3724:	7a 0a 08 ff 00 00 00 00	*(u64 *)(r10 - 0xf8) = 0x0
    3725:	79 82 30 00 00 00 00 00	r2 = *(u64 *)(r8 + 0x30)
    3726:	71 24 02 00 00 00 00 00	r4 = *(u8 *)(r2 + 0x2)
    3727:	71 25 01 00 00 00 00 00	r5 = *(u8 *)(r2 + 0x1)
    3728:	71 26 03 00 00 00 00 00	r6 = *(u8 *)(r2 + 0x3)
    3729:	79 20 50 00 00 00 00 00	r0 = *(u64 *)(r2 + 0x50)
    3730:	bf 29 00 00 00 00 00 00	r9 = r2
    3731:	07 09 00 00 28 00 00 00	r9 += 0x28
    3732:	7b 9a 38 ff 00 00 00 00	*(u64 *)(r10 - 0xc8) = r9
    3733:	bf 29 00 00 00 00 00 00	r9 = r2
    3734:	07 09 00 00 58 00 00 00	r9 += 0x58
    3735:	7b 9a 30 ff 00 00 00 00	*(u64 *)(r10 - 0xd0) = r9
    3736:	7b 0a 28 ff 00 00 00 00	*(u64 *)(r10 - 0xd8) = r0
    3737:	bf 20 00 00 00 00 00 00	r0 = r2
    3738:	07 00 00 00 48 00 00 00	r0 += 0x48
    3739:	7b 0a 20 ff 00 00 00 00	*(u64 *)(r10 - 0xe0) = r0
    3740:	07 02 00 00 08 00 00 00	r2 += 0x8
    3741:	7b 2a 18 ff 00 00 00 00	*(u64 *)(r10 - 0xe8) = r2
    3742:	7b 2a 98 fd 00 00 00 00	*(u64 *)(r10 - 0x268) = r2
    3743:	b7 00 00 00 01 00 00 00	r0 = 0x1
    3744:	55 06 01 00 00 00 00 00	if r6 != 0x0 goto +0x1 <.text+0x73f0>
    3745:	b7 00 00 00 00 00 00 00	r0 = 0x0
    3746:	73 0a 4a ff 00 00 00 00	*(u8 *)(r10 - 0xb6) = r0
    3747:	b7 00 00 00 01 00 00 00	r0 = 0x1
    3748:	55 05 01 00 00 00 00 00	if r5 != 0x0 goto +0x1 <.text+0x7410>
    3749:	b7 00 00 00 00 00 00 00	r0 = 0x0
    3750:	73 0a 48 ff 00 00 00 00	*(u8 *)(r10 - 0xb8) = r0
    3751:	73 0a a1 fd 00 00 00 00	*(u8 *)(r10 - 0x25f) = r0
    3752:	b7 05 00 00 01 00 00 00	r5 = 0x1
    3753:	55 04 01 00 00 00 00 00	if r4 != 0x0 goto +0x1 <.text+0x7438>
    3754:	b7 05 00 00 00 00 00 00	r5 = 0x0
    3755:	73 5a 49 ff 00 00 00 00	*(u8 *)(r10 - 0xb7) = r5
    3756:	73 5a a0 fd 00 00 00 00	*(u8 *)(r10 - 0x260) = r5
    3757:	7a 0a 40 ff 00 00 00 00	*(u64 *)(r10 - 0xc0) = 0x0
    3758:	79 82 38 00 00 00 00 00	r2 = *(u64 *)(r8 + 0x38)
    3759:	71 24 02 00 00 00 00 00	r4 = *(u8 *)(r2 + 0x2)
    3760:	71 25 01 00 00 00 00 00	r5 = *(u8 *)(r2 + 0x1)
    3761:	71 26 03 00 00 00 00 00	r6 = *(u8 *)(r2 + 0x3)
    3762:	79 20 50 00 00 00 00 00	r0 = *(u64 *)(r2 + 0x50)
    3763:	bf 29 00 00 00 00 00 00	r9 = r2
    3764:	07 09 00 00 28 00 00 00	r9 += 0x28
    3765:	7b 9a 70 ff 00 00 00 00	*(u64 *)(r10 - 0x90) = r9
    3766:	bf 29 00 00 00 00 00 00	r9 = r2
    3767:	07 09 00 00 58 00 00 00	r9 += 0x58
    3768:	7b 9a 68 ff 00 00 00 00	*(u64 *)(r10 - 0x98) = r9
    3769:	7b 0a 60 ff 00 00 00 00	*(u64 *)(r10 - 0xa0) = r0
    3770:	bf 20 00 00 00 00 00 00	r0 = r2
    3771:	07 00 00 00 48 00 00 00	r0 += 0x48
    3772:	7b 0a 58 ff 00 00 00 00	*(u64 *)(r10 - 0xa8) = r0
    3773:	07 02 00 00 08 00 00 00	r2 += 0x8
    3774:	7b 2a 50 ff 00 00 00 00	*(u64 *)(r10 - 0xb0) = r2
    3775:	7b 2a a8 fd 00 00 00 00	*(u64 *)(r10 - 0x258) = r2
    3776:	b7 00 00 00 01 00 00 00	r0 = 0x1
    3777:	55 06 01 00 00 00 00 00	if r6 != 0x0 goto +0x1 <.text+0x74f8>
    3778:	b7 00 00 00 00 00 00 00	r0 = 0x0
    3779:	73 0a 82 ff 00 00 00 00	*(u8 *)(r10 - 0x7e) = r0
    3780:	b7 00 00 00 01 00 00 00	r0 = 0x1
    3781:	55 05 01 00 00 00 00 00	if r5 != 0x0 goto +0x1 <.text+0x7518>
    3782:	b7 00 00 00 00 00 00 00	r0 = 0x0
    3783:	73 0a 80 ff 00 00 00 00	*(u8 *)(r10 - 0x80) = r0
    3784:	73 0a b1 fd 00 00 00 00	*(u8 *)(r10 - 0x24f) = r0
    3785:	b7 05 00 00 01 00 00 00	r5 = 0x1
    3786:	55 04 01 00 00 00 00 00	if r4 != 0x0 goto +0x1 <.text+0x7540>
    3787:	b7 05 00 00 00 00 00 00	r5 = 0x0
    3788:	73 5a 81 ff 00 00 00 00	*(u8 *)(r10 - 0x7f) = r5
    3789:	73 5a b0 fd 00 00 00 00	*(u8 *)(r10 - 0x250) = r5
    3790:	7a 0a 78 ff 00 00 00 00	*(u64 *)(r10 - 0x88) = 0x0
    3791:	79 82 40 00 00 00 00 00	r2 = *(u64 *)(r8 + 0x40)
    3792:	71 24 02 00 00 00 00 00	r4 = *(u8 *)(r2 + 0x2)
    3793:	71 25 01 00 00 00 00 00	r5 = *(u8 *)(r2 + 0x1)
    3794:	71 26 03 00 00 00 00 00	r6 = *(u8 *)(r2 + 0x3)
    3795:	79 20 50 00 00 00 00 00	r0 = *(u64 *)(r2 + 0x50)
    3796:	bf 29 00 00 00 00 00 00	r9 = r2
    3797:	07 09 00 00 28 00 00 00	r9 += 0x28
    3798:	7b 9a a8 ff 00 00 00 00	*(u64 *)(r10 - 0x58) = r9
    3799:	bf 29 00 00 00 00 00 00	r9 = r2
    3800:	07 09 00 00 58 00 00 00	r9 += 0x58
    3801:	7b 9a a0 ff 00 00 00 00	*(u64 *)(r10 - 0x60) = r9
    3802:	7b 0a 98 ff 00 00 00 00	*(u64 *)(r10 - 0x68) = r0
    3803:	bf 20 00 00 00 00 00 00	r0 = r2
    3804:	07 00 00 00 48 00 00 00	r0 += 0x48
    3805:	7b 0a 90 ff 00 00 00 00	*(u64 *)(r10 - 0x70) = r0
    3806:	07 02 00 00 08 00 00 00	r2 += 0x8
    3807:	7b 2a 88 ff 00 00 00 00	*(u64 *)(r10 - 0x78) = r2
    3808:	7b 2a b8 fd 00 00 00 00	*(u64 *)(r10 - 0x248) = r2
    3809:	b7 00 00 00 01 00 00 00	r0 = 0x1
    3810:	55 06 01 00 00 00 00 00	if r6 != 0x0 goto +0x1 <.text+0x7600>
    3811:	b7 00 00 00 00 00 00 00	r0 = 0x0
    3812:	73 0a ba ff 00 00 00 00	*(u8 *)(r10 - 0x46) = r0
    3813:	b7 00 00 00 01 00 00 00	r0 = 0x1
    3814:	55 05 01 00 00 00 00 00	if r5 != 0x0 goto +0x1 <.text+0x7620>
    3815:	b7 00 00 00 00 00 00 00	r0 = 0x0
    3816:	73 0a b8 ff 00 00 00 00	*(u8 *)(r10 - 0x48) = r0
    3817:	73 0a c1 fd 00 00 00 00	*(u8 *)(r10 - 0x23f) = r0
    3818:	55 04 01 00 00 00 00 00	if r4 != 0x0 goto +0x1 <.text+0x7640>
    3819:	b7 01 00 00 00 00 00 00	r1 = 0x0
    3820:	73 1a b9 ff 00 00 00 00	*(u8 *)(r10 - 0x47) = r1
    3821:	73 1a c0 fd 00 00 00 00	*(u8 *)(r10 - 0x240) = r1
    3822:	7a 0a b0 ff 00 00 00 00	*(u64 *)(r10 - 0x50) = 0x0
    3823:	7b 3a c8 ff 00 00 00 00	*(u64 *)(r10 - 0x38) = r3
    3824:	7a 0a d0 ff 00 00 00 00	*(u64 *)(r10 - 0x30) = 0x0
    3825:	72 0a c7 ff 01 00 00 00	*(u8 *)(r10 - 0x39) = 0x1
    3826:	bf a1 00 00 00 00 00 00	r1 = r10
    3827:	07 01 00 00 c7 ff ff ff	r1 += -0x39
    3828:	7b 1a f0 ff 00 00 00 00	*(u64 *)(r10 - 0x10) = r1
    3829:	bf a1 00 00 00 00 00 00	r1 = r10
    3830:	07 01 00 00 38 fd ff ff	r1 += -0x2c8
    3831:	7b 1a e0 ff 00 00 00 00	*(u64 *)(r10 - 0x20) = r1
    3832:	79 a1 28 fd 00 00 00 00	r1 = *(u64 *)(r10 - 0x2d8)
    3833:	7b 1a d8 ff 00 00 00 00	*(u64 *)(r10 - 0x28) = r1
    3834:	7a 0a f8 ff 18 00 00 00	*(u64 *)(r10 - 0x8) = 0x18
    3835:	7a 0a e8 ff 09 00 00 00	*(u64 *)(r10 - 0x18) = 0x9
    3836:	bf a1 00 00 00 00 00 00	r1 = r10
    3837:	07 01 00 00 d8 ff ff ff	r1 += -0x28
    3838:	bf a2 00 00 00 00 00 00	r2 = r10
    3839:	07 02 00 00 c8 fd ff ff	r2 += -0x238
    3840:	b7 03 00 00 09 00 00 00	r3 = 0x9
    3841:	b7 04 00 00 08 00 00 00	r4 = 0x8
    3842:	b7 05 00 00 00 00 00 00	r5 = 0x0
    3843:	85 10 00 00 ff ff ff ff	call -0x1
    3844:	07 07 00 00 f7 ff ff ff	r7 += -0x9
    3845:	79 a1 30 fd 00 00 00 00	r1 = *(u64 *)(r10 - 0x2d0)
    3846:	7b 71 08 00 00 00 00 00	*(u64 *)(r1 + 0x8) = r7
    3847:	07 08 00 00 48 00 00 00	r8 += 0x48
    3848:	7b 81 00 00 00 00 00 00	*(u64 *)(r1 + 0x0) = r8
    3849:	b7 00 00 00 6f 17 00 00	r0 = 0x176f
    3850:	95 00 00 00 00 00 00 00	exit
    3851:	bf 28 00 00 00 00 00 00	r8 = r2
    3852:	bf 17 00 00 00 00 00 00	r7 = r1
    3853:	b7 00 00 00 73 17 00 00	r0 = 0x1773
    3854:	bf a1 00 00 00 00 00 00	r1 = r10
    3855:	07 01 00 00 20 fb ff ff	r1 += -0x4e0
    3856:	79 85 08 00 00 00 00 00	r5 = *(u64 *)(r8 + 0x8)
    3857:	a5 05 7d 00 10 00 00 00	if r5 < 0x10 goto +0x7d <.text+0x7b58>
    3858:	79 42 50 00 00 00 00 00	r2 = *(u64 *)(r4 + 0x50)
    3859:	25 02 04 00 1f 00 00 00	if r2 > 0x1f goto +0x4 <.text+0x77a0>
    3860:	b7 01 00 00 20 00 00 00	r1 = 0x20
    3861:	18 03 00 00 f8 41 02 00 00 00 00 00 00 00 00 00	r3 = 0x241f8 ll
    3863:	85 10 00 00 3b 28 00 00	call 0x283b
    3864:	79 86 00 00 00 00 00 00	r6 = *(u64 *)(r8 + 0x0)
    3865:	79 61 20 00 00 00 00 00	r1 = *(u64 *)(r6 + 0x20)
    3866:	79 12 50 00 00 00 00 00	r2 = *(u64 *)(r1 + 0x50)
    3867:	25 02 04 00 2a 00 00 00	if r2 > 0x2a goto +0x4 <.text+0x77e0>
    3868:	b7 01 00 00 2b 00 00 00	r1 = 0x2b
    3869:	18 03 00 00 38 43 02 00 00 00 00 00 00 00 00 00	r3 = 0x24338 ll
    3871:	85 10 00 00 33 28 00 00	call 0x2833
    3872:	7b 3a f8 fa 00 00 00 00	*(u64 *)(r10 - 0x508) = r3
    3873:	7b 7a 00 fb 00 00 00 00	*(u64 *)(r10 - 0x500) = r7
    3874:	7b 5a 10 fb 00 00 00 00	*(u64 *)(r10 - 0x4f0) = r5
    3875:	7b 8a 18 fb 00 00 00 00	*(u64 *)(r10 - 0x4e8) = r8
    3876:	07 01 00 00 63 00 00 00	r1 += 0x63
    3877:	07 04 00 00 58 00 00 00	r4 += 0x58
    3878:	bf 42 00 00 00 00 00 00	r2 = r4
    3879:	b7 03 00 00 20 00 00 00	r3 = 0x20
    3880:	85 10 00 00 66 2d 00 00	call 0x2d66
    3881:	7b 0a f0 fa 00 00 00 00	*(u64 *)(r10 - 0x510) = r0
    3882:	b7 01 00 00 00 00 00 00	r1 = 0x0
    3883:	bf a2 00 00 00 00 00 00	r2 = r10
    3884:	07 02 00 00 28 fb ff ff	r2 += -0x4d8
    3885:	7b 6a 08 fb 00 00 00 00	*(u64 *)(r10 - 0x4f8) = r6
    3886:	bf 63 00 00 00 00 00 00	r3 = r6
    3887:	05 00 1b 00 00 00 00 00	goto +0x1b <.text+0x7938>
    3888:	bf a6 00 00 00 00 00 00	r6 = r10
    3889:	07 06 00 00 20 fc ff ff	r6 += -0x3e0
    3890:	0f 16 00 00 00 00 00 00	r6 += r1
    3891:	79 79 50 00 00 00 00 00	r9 = *(u64 *)(r7 + 0x50)
    3892:	bf 74 00 00 00 00 00 00	r4 = r7
    3893:	07 04 00 00 28 00 00 00	r4 += 0x28
    3894:	7b 46 20 00 00 00 00 00	*(u64 *)(r6 + 0x20) = r4
    3895:	bf 74 00 00 00 00 00 00	r4 = r7
    3896:	07 04 00 00 58 00 00 00	r4 += 0x58
    3897:	7b 46 18 00 00 00 00 00	*(u64 *)(r6 + 0x18) = r4
    3898:	7b 96 10 00 00 00 00 00	*(u64 *)(r6 + 0x10) = r9
    3899:	bf 74 00 00 00 00 00 00	r4 = r7
    3900:	07 04 00 00 48 00 00 00	r4 += 0x48
    3901:	7b 46 08 00 00 00 00 00	*(u64 *)(r6 + 0x8) = r4
    3902:	73 06 32 00 00 00 00 00	*(u8 *)(r6 + 0x32) = r0
    3903:	07 07 00 00 08 00 00 00	r7 += 0x8
    3904:	7b 76 00 00 00 00 00 00	*(u64 *)(r6 + 0x0) = r7
    3905:	73 86 31 00 00 00 00 00	*(u8 *)(r6 + 0x31) = r8
    3906:	73 56 30 00 00 00 00 00	*(u8 *)(r6 + 0x30) = r5
    3907:	7a 06 28 00 00 00 00 00	*(u64 *)(r6 + 0x28) = 0x0
    3908:	73 52 01 00 00 00 00 00	*(u8 *)(r2 + 0x1) = r5
    3909:	73 82 00 00 00 00 00 00	*(u8 *)(r2 + 0x0) = r8
    3910:	7b 72 f8 ff 00 00 00 00	*(u64 *)(r2 - 0x8) = r7
    3911:	07 02 00 00 10 00 00 00	r2 += 0x10
    3912:	07 03 00 00 08 00 00 00	r3 += 0x8
    3913:	07 01 00 00 38 00 00 00	r1 += 0x38
    3914:	15 01 0e 00 80 03 00 00	if r1 == 0x380 goto +0xe <.text+0x79a8>
    3915:	79 37 00 00 00 00 00 00	r7 = *(u64 *)(r3 + 0x0)
    3916:	71 78 01 00 00 00 00 00	r8 = *(u8 *)(r7 + 0x1)
    3917:	b7 00 00 00 01 00 00 00	r0 = 0x1
    3918:	b7 05 00 00 01 00 00 00	r5 = 0x1
    3919:	55 08 01 00 00 00 00 00	if r8 != 0x0 goto +0x1 <.text+0x7968>
    3920:	b7 05 00 00 00 00 00 00	r5 = 0x0
    3921:	71 76 02 00 00 00 00 00	r6 = *(u8 *)(r7 + 0x2)
    3922:	b7 08 00 00 01 00 00 00	r8 = 0x1
    3923:	55 06 01 00 00 00 00 00	if r6 != 0x0 goto +0x1 <.text+0x7988>
    3924:	b7 08 00 00 00 00 00 00	r8 = 0x0
    3925:	71 76 03 00 00 00 00 00	r6 = *(u8 *)(r7 + 0x3)
    3926:	55 06 d9 ff 00 00 00 00	if r6 != 0x0 goto -0x27 <.text+0x7860>
    3927:	b7 00 00 00 00 00 00 00	r0 = 0x0
    3928:	05 00 d7 ff 00 00 00 00	goto -0x29 <.text+0x7860>
    3929:	79 a4 f0 fa 00 00 00 00	r4 = *(u64 *)(r10 - 0x510)
    3930:	67 04 00 00 20 00 00 00	r4 <<= 0x20
    3931:	77 04 00 00 20 00 00 00	r4 >>= 0x20
    3932:	18 01 00 00 50 3b 01 00 00 00 00 00 01 00 00 00	r1 = 0x100013b50 ll
    3934:	15 04 02 00 00 00 00 00	if r4 == 0x0 goto +0x2 <.text+0x79e8>
    3935:	18 01 00 00 af 33 1b a8 00 00 00 00 32 7f bb 35	r1 = 0x35bb7f32a81b33af ll
    3937:	79 a2 f8 fa 00 00 00 00	r2 = *(u64 *)(r10 - 0x508)
    3938:	7b 2a a8 ff 00 00 00 00	*(u64 *)(r10 - 0x58) = r2
    3939:	18 02 00 00 f8 c6 9e 91 00 00 00 00 e1 75 87 c8	r2 = -0x37788a1e6e613908 ll
    3941:	7b 2a a0 ff 00 00 00 00	*(u64 *)(r10 - 0x60) = r2
    3942:	b7 02 00 00 00 00 00 00	r2 = 0x0
    3943:	79 a6 08 fb 00 00 00 00	r6 = *(u64 *)(r10 - 0x4f8)
    3944:	79 a3 00 fb 00 00 00 00	r3 = *(u64 *)(r10 - 0x500)
    3945:	15 04 02 00 00 00 00 00	if r4 == 0x0 goto +0x2 <.text+0x7a40>
    3946:	18 02 00 00 b1 c4 fe ff 00 00 00 00 00 00 00 00	r2 = 0xfffec4b1 ll
    3948:	7b 2a c0 ff 00 00 00 00	*(u64 *)(r10 - 0x40) = r2
    3949:	7b 1a b8 ff 00 00 00 00	*(u64 *)(r10 - 0x48) = r1
    3950:	b7 01 00 00 01 00 00 00	r1 = 0x1
    3951:	15 04 01 00 00 00 00 00	if r4 == 0x0 goto +0x1 <.text+0x7a68>
    3952:	b7 01 00 00 00 00 00 00	r1 = 0x0
    3953:	73 1a c9 ff 00 00 00 00	*(u8 *)(r10 - 0x37) = r1
    3954:	6a 0a cf ff 05 02 00 00	*(u16 *)(r10 - 0x31) = 0x205
    3955:	62 0a cb ff 01 00 00 00	*(u32 *)(r10 - 0x35) = 0x1
    3956:	72 0a ca ff 01 00 00 00	*(u8 *)(r10 - 0x36) = 0x1
    3957:	72 0a c8 ff 01 00 00 00	*(u8 *)(r10 - 0x38) = 0x1
    3958:	7a 0a b0 ff 00 00 00 00	*(u64 *)(r10 - 0x50) = 0x0
    3959:	bf a1 00 00 00 00 00 00	r1 = r10
    3960:	07 01 00 00 a0 ff ff ff	r1 += -0x60
    3961:	7b 1a f0 ff 00 00 00 00	*(u64 *)(r10 - 0x10) = r1
    3962:	bf a1 00 00 00 00 00 00	r1 = r10
    3963:	07 01 00 00 20 fb ff ff	r1 += -0x4e0
    3964:	7b 1a e0 ff 00 00 00 00	*(u64 *)(r10 - 0x20) = r1
    3965:	7b 3a d8 ff 00 00 00 00	*(u64 *)(r10 - 0x28) = r3
    3966:	7a 0a f8 ff 31 00 00 00	*(u64 *)(r10 - 0x8) = 0x31
    3967:	7a 0a e8 ff 10 00 00 00	*(u64 *)(r10 - 0x18) = 0x10
    3968:	bf a1 00 00 00 00 00 00	r1 = r10
    3969:	07 01 00 00 d8 ff ff ff	r1 += -0x28
    3970:	bf a2 00 00 00 00 00 00	r2 = r10
    3971:	07 02 00 00 20 fc ff ff	r2 += -0x3e0
    3972:	b7 03 00 00 10 00 00 00	r3 = 0x10
    3973:	b7 04 00 00 08 00 00 00	r4 = 0x8
    3974:	b7 05 00 00 00 00 00 00	r5 = 0x0
    3975:	85 10 00 00 ff ff ff ff	call -0x1
    3976:	79 a2 10 fb 00 00 00 00	r2 = *(u64 *)(r10 - 0x4f0)
    3977:	07 02 00 00 f0 ff ff ff	r2 += -0x10
    3978:	79 a1 18 fb 00 00 00 00	r1 = *(u64 *)(r10 - 0x4e8)
    3979:	7b 21 08 00 00 00 00 00	*(u64 *)(r1 + 0x8) = r2
    3980:	07 06 00 00 80 00 00 00	r6 += 0x80
    3981:	7b 61 00 00 00 00 00 00	*(u64 *)(r1 + 0x0) = r6
    3982:	b7 00 00 00 6f 17 00 00	r0 = 0x176f
    3983:	95 00 00 00 00 00 00 00	exit
    3984:	b7 00 00 00 77 17 00 00	r0 = 0x1777
    3985:	79 47 08 00 00 00 00 00	r7 = *(u64 *)(r4 + 0x8)
    3986:	15 07 59 01 00 00 00 00	if r7 == 0x0 goto +0x159 <.text+0x8640>
    3987:	b7 00 00 00 73 17 00 00	r0 = 0x1773
    3988:	79 25 08 00 00 00 00 00	r5 = *(u64 *)(r2 + 0x8)
    3989:	a5 05 56 01 09 00 00 00	if r5 < 0x9 goto +0x156 <.text+0x8640>
    3990:	79 48 00 00 00 00 00 00	r8 = *(u64 *)(r4 + 0x0)
    3991:	71 89 00 00 00 00 00 00	r9 = *(u8 *)(r8 + 0x0)
    3992:	b7 00 00 00 00 00 00 00	r0 = 0x0
    3993:	15 09 03 00 00 00 00 00	if r9 == 0x0 goto +0x3 <.text+0x7bc8>
    3994:	b7 00 00 00 78 17 00 00	r0 = 0x1778
    3995:	55 09 50 01 01 00 00 00	if r9 != 0x1 goto +0x150 <.text+0x8640>
    3996:	b7 00 00 00 01 00 00 00	r0 = 0x1
    3997:	7b 0a 20 fd 00 00 00 00	*(u64 *)(r10 - 0x2e0) = r0
    3998:	7b 5a 28 fd 00 00 00 00	*(u64 *)(r10 - 0x2d8) = r5
    3999:	07 07 00 00 ff ff ff ff	r7 += -0x1
    4000:	7b 74 08 00 00 00 00 00	*(u64 *)(r4 + 0x8) = r7
    4001:	07 08 00 00 01 00 00 00	r8 += 0x1
    4002:	7b 84 00 00 00 00 00 00	*(u64 *)(r4 + 0x0) = r8
    4003:	79 27 00 00 00 00 00 00	r7 = *(u64 *)(r2 + 0x0)
    4004:	79 76 00 00 00 00 00 00	r6 = *(u64 *)(r7 + 0x0)
    4005:	71 60 02 00 00 00 00 00	r0 = *(u8 *)(r6 + 0x2)
    4006:	71 68 01 00 00 00 00 00	r8 = *(u8 *)(r6 + 0x1)
    4007:	71 65 03 00 00 00 00 00	r5 = *(u8 *)(r6 + 0x3)
    4008:	79 69 50 00 00 00 00 00	r9 = *(u64 *)(r6 + 0x50)
    4009:	bf 64 00 00 00 00 00 00	r4 = r6
    4010:	07 04 00 00 28 00 00 00	r4 += 0x28
    4011:	7b 4a e0 fd 00 00 00 00	*(u64 *)(r10 - 0x220) = r4
    4012:	bf 64 00 00 00 00 00 00	r4 = r6
    4013:	07 04 00 00 58 00 00 00	r4 += 0x58
    4014:	7b 4a d8 fd 00 00 00 00	*(u64 *)(r10 - 0x228) = r4
    4015:	7b 9a d0 fd 00 00 00 00	*(u64 *)(r10 - 0x230) = r9
    4016:	bf 64 00 00 00 00 00 00	r4 = r6
    4017:	07 04 00 00 48 00 00 00	r4 += 0x48
    4018:	7b 4a c8 fd 00 00 00 00	*(u64 *)(r10 - 0x238) = r4
    4019:	07 06 00 00 08 00 00 00	r6 += 0x8
    4020:	7b 6a c0 fd 00 00 00 00	*(u64 *)(r10 - 0x240) = r6
    4021:	7b 6a 30 fd 00 00 00 00	*(u64 *)(r10 - 0x2d0) = r6
    4022:	b7 09 00 00 01 00 00 00	r9 = 0x1
    4023:	55 05 01 00 00 00 00 00	if r5 != 0x0 goto +0x1 <.text+0x7ca8>
    4024:	b7 09 00 00 00 00 00 00	r9 = 0x0
    4025:	73 9a f2 fd 00 00 00 00	*(u8 *)(r10 - 0x20e) = r9
    4026:	b7 09 00 00 01 00 00 00	r9 = 0x1
    4027:	55 08 01 00 00 00 00 00	if r8 != 0x0 goto +0x1 <.text+0x7cc8>
    4028:	b7 09 00 00 00 00 00 00	r9 = 0x0
    4029:	73 9a f0 fd 00 00 00 00	*(u8 *)(r10 - 0x210) = r9
    4030:	73 9a 39 fd 00 00 00 00	*(u8 *)(r10 - 0x2c7) = r9
    4031:	b7 08 00 00 01 00 00 00	r8 = 0x1
    4032:	55 00 01 00 00 00 00 00	if r0 != 0x0 goto +0x1 <.text+0x7cf0>
    4033:	b7 08 00 00 00 00 00 00	r8 = 0x0
    4034:	73 8a f1 fd 00 00 00 00	*(u8 *)(r10 - 0x20f) = r8
    4035:	73 8a 38 fd 00 00 00 00	*(u8 *)(r10 - 0x2c8) = r8
    4036:	7a 0a e8 fd 00 00 00 00	*(u64 *)(r10 - 0x218) = 0x0
    4037:	79 74 08 00 00 00 00 00	r4 = *(u64 *)(r7 + 0x8)
    4038:	71 40 02 00 00 00 00 00	r0 = *(u8 *)(r4 + 0x2)
    4039:	71 48 01 00 00 00 00 00	r8 = *(u8 *)(r4 + 0x1)
    4040:	71 46 03 00 00 00 00 00	r6 = *(u8 *)(r4 + 0x3)
    4041:	79 49 50 00 00 00 00 00	r9 = *(u64 *)(r4 + 0x50)
    4042:	bf 45 00 00 00 00 00 00	r5 = r4
    4043:	07 05 00 00 28 00 00 00	r5 += 0x28
    4044:	7b 5a 18 fe 00 00 00 00	*(u64 *)(r10 - 0x1e8) = r5
    4045:	bf 45 00 00 00 00 00 00	r5 = r4
    4046:	07 05 00 00 58 00 00 00	r5 += 0x58
    4047:	7b 5a 10 fe 00 00 00 00	*(u64 *)(r10 - 0x1f0) = r5
    4048:	7b 9a 08 fe 00 00 00 00	*(u64 *)(r10 - 0x1f8) = r9
    4049:	bf 45 00 00 00 00 00 00	r5 = r4
    4050:	07 05 00 00 48 00 00 00	r5 += 0x48
    4051:	7b 5a 00 fe 00 00 00 00	*(u64 *)(r10 - 0x200) = r5
    4052:	07 04 00 00 08 00 00 00	r4 += 0x8
    4053:	7b 4a f8 fd 00 00 00 00	*(u64 *)(r10 - 0x208) = r4
    4054:	7b 4a 40 fd 00 00 00 00	*(u64 *)(r10 - 0x2c0) = r4
    4055:	b7 09 00 00 01 00 00 00	r9 = 0x1
    4056:	55 06 01 00 00 00 00 00	if r6 != 0x0 goto +0x1 <.text+0x7db0>
    4057:	b7 09 00 00 00 00 00 00	r9 = 0x0
    4058:	73 9a 2a fe 00 00 00 00	*(u8 *)(r10 - 0x1d6) = r9
    4059:	b7 09 00 00 01 00 00 00	r9 = 0x1
    4060:	55 08 01 00 00 00 00 00	if r8 != 0x0 goto +0x1 <.text+0x7dd0>
    4061:	b7 09 00 00 00 00 00 00	r9 = 0x0
    4062:	73 9a 28 fe 00 00 00 00	*(u8 *)(r10 - 0x1d8) = r9
    4063:	73 9a 49 fd 00 00 00 00	*(u8 *)(r10 - 0x2b7) = r9
    4064:	b7 08 00 00 01 00 00 00	r8 = 0x1
    4065:	55 00 01 00 00 00 00 00	if r0 != 0x0 goto +0x1 <.text+0x7df8>
    4066:	b7 08 00 00 00 00 00 00	r8 = 0x0
    4067:	73 8a 29 fe 00 00 00 00	*(u8 *)(r10 - 0x1d7) = r8
    4068:	73 8a 48 fd 00 00 00 00	*(u8 *)(r10 - 0x2b8) = r8
    4069:	7a 0a 20 fe 00 00 00 00	*(u64 *)(r10 - 0x1e0) = 0x0
    4070:	79 74 10 00 00 00 00 00	r4 = *(u64 *)(r7 + 0x10)
    4071:	71 40 02 00 00 00 00 00	r0 = *(u8 *)(r4 + 0x2)
    4072:	71 48 01 00 00 00 00 00	r8 = *(u8 *)(r4 + 0x1)
    4073:	71 45 03 00 00 00 00 00	r5 = *(u8 *)(r4 + 0x3)
    4074:	79 46 50 00 00 00 00 00	r6 = *(u64 *)(r4 + 0x50)
    4075:	bf 49 00 00 00 00 00 00	r9 = r4
    4076:	07 09 00 00 28 00 00 00	r9 += 0x28
    4077:	7b 9a 50 fe 00 00 00 00	*(u64 *)(r10 - 0x1b0) = r9
    4078:	bf 49 00 00 00 00 00 00	r9 = r4
    4079:	07 09 00 00 58 00 00 00	r9 += 0x58
    4080:	7b 9a 48 fe 00 00 00 00	*(u64 *)(r10 - 0x1b8) = r9
    4081:	7b 6a 40 fe 00 00 00 00	*(u64 *)(r10 - 0x1c0) = r6
    4082:	bf 46 00 00 00 00 00 00	r6 = r4
    4083:	07 06 00 00 48 00 00 00	r6 += 0x48
    4084:	7b 6a 38 fe 00 00 00 00	*(u64 *)(r10 - 0x1c8) = r6
    4085:	07 04 00 00 08 00 00 00	r4 += 0x8
    4086:	7b 4a 30 fe 00 00 00 00	*(u64 *)(r10 - 0x1d0) = r4
    4087:	7b 4a 50 fd 00 00 00 00	*(u64 *)(r10 - 0x2b0) = r4
    4088:	b7 09 00 00 01 00 00 00	r9 = 0x1
    4089:	55 05 01 00 00 00 00 00	if r5 != 0x0 goto +0x1 <.text+0x7eb8>
    4090:	b7 09 00 00 00 00 00 00	r9 = 0x0
    4091:	73 9a 62 fe 00 00 00 00	*(u8 *)(r10 - 0x19e) = r9
    4092:	b7 09 00 00 01 00 00 00	r9 = 0x1
    4093:	55 08 01 00 00 00 00 00	if r8 != 0x0 goto +0x1 <.text+0x7ed8>
    4094:	b7 09 00 00 00 00 00 00	r9 = 0x0
    4095:	73 9a 60 fe 00 00 00 00	*(u8 *)(r10 - 0x1a0) = r9
    4096:	73 9a 59 fd 00 00 00 00	*(u8 *)(r10 - 0x2a7) = r9
    4097:	b7 08 00 00 01 00 00 00	r8 = 0x1
    4098:	55 00 01 00 00 00 00 00	if r0 != 0x0 goto +0x1 <.text+0x7f00>
    4099:	b7 08 00 00 00 00 00 00	r8 = 0x0
    4100:	73 8a 61 fe 00 00 00 00	*(u8 *)(r10 - 0x19f) = r8
    4101:	73 8a 58 fd 00 00 00 00	*(u8 *)(r10 - 0x2a8) = r8
    4102:	7a 0a 58 fe 00 00 00 00	*(u64 *)(r10 - 0x1a8) = 0x0
    4103:	79 74 18 00 00 00 00 00	r4 = *(u64 *)(r7 + 0x18)
    4104:	71 40 02 00 00 00 00 00	r0 = *(u8 *)(r4 + 0x2)
    4105:	71 48 01 00 00 00 00 00	r8 = *(u8 *)(r4 + 0x1)
    4106:	71 45 03 00 00 00 00 00	r5 = *(u8 *)(r4 + 0x3)
    4107:	79 46 50 00 00 00 00 00	r6 = *(u64 *)(r4 + 0x50)
    4108:	bf 49 00 00 00 00 00 00	r9 = r4
    4109:	07 09 00 00 28 00 00 00	r9 += 0x28
    4110:	7b 9a 88 fe 00 00 00 00	*(u64 *)(r10 - 0x178) = r9
    4111:	bf 49 00 00 00 00 00 00	r9 = r4
    4112:	07 09 00 00 58 00 00 00	r9 += 0x58
    4113:	7b 9a 80 fe 00 00 00 00	*(u64 *)(r10 - 0x180) = r9
    4114:	7b 6a 78 fe 00 00 00 00	*(u64 *)(r10 - 0x188) = r6
    4115:	bf 46 00 00 00 00 00 00	r6 = r4
    4116:	07 06 00 00 48 00 00 00	r6 += 0x48
    4117:	7b 6a 70 fe 00 00 00 00	*(u64 *)(r10 - 0x190) = r6
    4118:	07 04 00 00 08 00 00 00	r4 += 0x8
    4119:	7b 4a 68 fe 00 00 00 00	*(u64 *)(r10 - 0x198) = r4
    4120:	7b 4a 60 fd 00 00 00 00	*(u64 *)(r10 - 0x2a0) = r4
    4121:	b7 09 00 00 01 00 00 00	r9 = 0x1
    4122:	55 05 01 00 00 00 00 00	if r5 != 0x0 goto +0x1 <.text+0x7fc0>
    4123:	b7 09 00 00 00 00 00 00	r9 = 0x0
    4124:	73 9a 9a fe 00 00 00 00	*(u8 *)(r10 - 0x166) = r9
    4125:	b7 09 00 00 01 00 00 00	r9 = 0x1
    4126:	55 08 01 00 00 00 00 00	if r8 != 0x0 goto +0x1 <.text+0x7fe0>
    4127:	b7 09 00 00 00 00 00 00	r9 = 0x0
    4128:	73 9a 98 fe 00 00 00 00	*(u8 *)(r10 - 0x168) = r9
    4129:	73 9a 69 fd 00 00 00 00	*(u8 *)(r10 - 0x297) = r9
    4130:	b7 08 00 00 01 00 00 00	r8 = 0x1
    4131:	55 00 01 00 00 00 00 00	if r0 != 0x0 goto +0x1 <.text+0x8008>
    4132:	b7 08 00 00 00 00 00 00	r8 = 0x0
    4133:	73 8a 99 fe 00 00 00 00	*(u8 *)(r10 - 0x167) = r8
    4134:	73 8a 68 fd 00 00 00 00	*(u8 *)(r10 - 0x298) = r8
    4135:	7a 0a 90 fe 00 00 00 00	*(u64 *)(r10 - 0x170) = 0x0
    4136:	79 74 20 00 00 00 00 00	r4 = *(u64 *)(r7 + 0x20)
    4137:	71 40 02 00 00 00 00 00	r0 = *(u8 *)(r4 + 0x2)
    4138:	71 48 01 00 00 00 00 00	r8 = *(u8 *)(r4 + 0x1)
    4139:	71 45 03 00 00 00 00 00	r5 = *(u8 *)(r4 + 0x3)
    4140:	79 46 50 00 00 00 00 00	r6 = *(u64 *)(r4 + 0x50)
    4141:	bf 49 00 00 00 00 00 00	r9 = r4
    4142:	07 09 00 00 28 00 00 00	r9 += 0x28
    4143:	7b 9a c0 fe 00 00 00 00	*(u64 *)(r10 - 0x140) = r9
    4144:	bf 49 00 00 00 00 00 00	r9 = r4
    4145:	07 09 00 00 58 00 00 00	r9 += 0x58
    4146:	7b 9a b8 fe 00 00 00 00	*(u64 *)(r10 - 0x148) = r9
    4147:	7b 6a b0 fe 00 00 00 00	*(u64 *)(r10 - 0x150) = r6
    4148:	bf 46 00 00 00 00 00 00	r6 = r4
    4149:	07 06 00 00 48 00 00 00	r6 += 0x48
    4150:	7b 6a a8 fe 00 00 00 00	*(u64 *)(r10 - 0x158) = r6
    4151:	07 04 00 00 08 00 00 00	r4 += 0x8
    4152:	7b 4a a0 fe 00 00 00 00	*(u64 *)(r10 - 0x160) = r4
    4153:	7b 4a 70 fd 00 00 00 00	*(u64 *)(r10 - 0x290) = r4
    4154:	b7 09 00 00 01 00 00 00	r9 = 0x1
    4155:	55 05 01 00 00 00 00 00	if r5 != 0x0 goto +0x1 <.text+0x80c8>
    4156:	b7 09 00 00 00 00 00 00	r9 = 0x0
    4157:	73 9a d2 fe 00 00 00 00	*(u8 *)(r10 - 0x12e) = r9
    4158:	b7 09 00 00 01 00 00 00	r9 = 0x1
    4159:	55 08 01 00 00 00 00 00	if r8 != 0x0 goto +0x1 <.text+0x80e8>
    4160:	b7 09 00 00 00 00 00 00	r9 = 0x0
    4161:	73 9a d0 fe 00 00 00 00	*(u8 *)(r10 - 0x130) = r9
    4162:	73 9a 79 fd 00 00 00 00	*(u8 *)(r10 - 0x287) = r9
    4163:	b7 08 00 00 01 00 00 00	r8 = 0x1
    4164:	55 00 01 00 00 00 00 00	if r0 != 0x0 goto +0x1 <.text+0x8110>
    4165:	b7 08 00 00 00 00 00 00	r8 = 0x0
    4166:	73 8a d1 fe 00 00 00 00	*(u8 *)(r10 - 0x12f) = r8
    4167:	73 8a 78 fd 00 00 00 00	*(u8 *)(r10 - 0x288) = r8
    4168:	7a 0a c8 fe 00 00 00 00	*(u64 *)(r10 - 0x138) = 0x0
    4169:	79 74 28 00 00 00 00 00	r4 = *(u64 *)(r7 + 0x28)
    4170:	71 40 02 00 00 00 00 00	r0 = *(u8 *)(r4 + 0x2)
    4171:	71 48 01 00 00 00 00 00	r8 = *(u8 *)(r4 + 0x1)
    4172:	71 45 03 00 00 00 00 00	r5 = *(u8 *)(r4 + 0x3)
    4173:	79 46 50 00 00 00 00 00	r6 = *(u64 *)(r4 + 0x50)
    4174:	bf 49 00 00 00 00 00 00	r9 = r4
    4175:	07 09 00 00 28 00 00 00	r9 += 0x28
    4176:	7b 9a f8 fe 00 00 00 00	*(u64 *)(r10 - 0x108) = r9
    4177:	bf 49 00 00 00 00 00 00	r9 = r4
    4178:	07 09 00 00 58 00 00 00	r9 += 0x58
    4179:	7b 9a f0 fe 00 00 00 00	*(u64 *)(r10 - 0x110) = r9
    4180:	7b 6a e8 fe 00 00 00 00	*(u64 *)(r10 - 0x118) = r6
    4181:	bf 46 00 00 00 00 00 00	r6 = r4
    4182:	07 06 00 00 48 00 00 00	r6 += 0x48
    4183:	7b 6a e0 fe 00 00 00 00	*(u64 *)(r10 - 0x120) = r6
    4184:	07 04 00 00 08 00 00 00	r4 += 0x8
    4185:	7b 4a d8 fe 00 00 00 00	*(u64 *)(r10 - 0x128) = r4
    4186:	7b 4a 80 fd 00 00 00 00	*(u64 *)(r10 - 0x280) = r4
    4187:	b7 09 00 00 01 00 00 00	r9 = 0x1
    4188:	55 05 01 00 00 00 00 00	if r5 != 0x0 goto +0x1 <.text+0x81d0>
    4189:	b7 09 00 00 00 00 00 00	r9 = 0x0
    4190:	73 9a 0a ff 00 00 00 00	*(u8 *)(r10 - 0xf6) = r9
    4191:	b7 09 00 00 01 00 00 00	r9 = 0x1
    4192:	55 08 01 00 00 00 00 00	if r8 != 0x0 goto +0x1 <.text+0x81f0>
    4193:	b7 09 00 00 00 00 00 00	r9 = 0x0
    4194:	73 9a 08 ff 00 00 00 00	*(u8 *)(r10 - 0xf8) = r9
    4195:	73 9a 89 fd 00 00 00 00	*(u8 *)(r10 - 0x277) = r9
    4196:	b7 08 00 00 01 00 00 00	r8 = 0x1
    4197:	55 00 01 00 00 00 00 00	if r0 != 0x0 goto +0x1 <.text+0x8218>
    4198:	b7 08 00 00 00 00 00 00	r8 = 0x0
    4199:	73 8a 09 ff 00 00 00 00	*(u8 *)(r10 - 0xf7) = r8
    4200:	73 8a 88 fd 00 00 00 00	*(u8 *)(r10 - 0x278) = r8
    4201:	7a 0a 00 ff 00 00 00 00	*(u64 *)(r10 - 0x100) = 0x0
    4202:	79 74 30 00 00 00 00 00	r4 = *(u64 *)(r7 + 0x30)
    4203:	71 40 02 00 00 00 00 00	r0 = *(u8 *)(r4 + 0x2)
    4204:	71 48 01 00 00 00 00 00	r8 = *(u8 *)(r4 + 0x1)
    4205:	71 45 03 00 00 00 00 00	r5 = *(u8 *)(r4 + 0x3)
    4206:	79 46 50 00 00 00 00 00	r6 = *(u64 *)(r4 + 0x50)
    4207:	bf 49 00 00 00 00 00 00	r9 = r4
    4208:	07 09 00 00 28 00 00 00	r9 += 0x28
    4209:	7b 9a 30 ff 00 00 00 00	*(u64 *)(r10 - 0xd0) = r9
    4210:	bf 49 00 00 00 00 00 00	r9 = r4
    4211:	07 09 00 00 58 00 00 00	r9 += 0x58
    4212:	7b 9a 28 ff 00 00 00 00	*(u64 *)(r10 - 0xd8) = r9
    4213:	7b 6a 20 ff 00 00 00 00	*(u64 *)(r10 - 0xe0) = r6
    4214:	bf 46 00 00 00 00 00 00	r6 = r4
    4215:	07 06 00 00 48 00 00 00	r6 += 0x48
    4216:	7b 6a 18 ff 00 00 00 00	*(u64 *)(r10 - 0xe8) = r6
    4217:	07 04 00 00 08 00 00 00	r4 += 0x8
    4218:	7b 4a 10 ff 00 00 00 00	*(u64 *)(r10 - 0xf0) = r4
    4219:	7b 4a 90 fd 00 00 00 00	*(u64 *)(r10 - 0x270) = r4
    4220:	b7 09 00 00 01 00 00 00	r9 = 0x1
    4221:	55 05 01 00 00 00 00 00	if r5 != 0x0 goto +0x1 <.text+0x82d8>
    4222:	b7 09 00 00 00 00 00 00	r9 = 0x0
    4223:	73 9a 42 ff 00 00 00 00	*(u8 *)(r10 - 0xbe) = r9
    4224:	b7 09 00 00 01 00 00 00	r9 = 0x1
    4225:	55 08 01 00 00 00 00 00	if r8 != 0x0 goto +0x1 <.text+0x82f8>
    4226:	b7 09 00 00 00 00 00 00	r9 = 0x0
    4227:	73 9a 40 ff 00 00 00 00	*(u8 *)(r10 - 0xc0) = r9
    4228:	73 9a 99 fd 00 00 00 00	*(u8 *)(r10 - 0x267) = r9
    4229:	b7 08 00 00 01 00 00 00	r8 = 0x1
    4230:	55 00 01 00 00 00 00 00	if r0 != 0x0 goto +0x1 <.text+0x8320>
    4231:	b7 08 00 00 00 00 00 00	r8 = 0x0
    4232:	73 8a 41 ff 00 00 00 00	*(u8 *)(r10 - 0xbf) = r8
    4233:	73 8a 98 fd 00 00 00 00	*(u8 *)(r10 - 0x268) = r8
    4234:	7a 0a 38 ff 00 00 00 00	*(u64 *)(r10 - 0xc8) = 0x0
    4235:	79 74 38 00 00 00 00 00	r4 = *(u64 *)(r7 + 0x38)
    4236:	71 40 02 00 00 00 00 00	r0 = *(u8 *)(r4 + 0x2)
    4237:	71 48 01 00 00 00 00 00	r8 = *(u8 *)(r4 + 0x1)
    4238:	71 45 03 00 00 00 00 00	r5 = *(u8 *)(r4 + 0x3)
    4239:	79 46 50 00 00 00 00 00	r6 = *(u64 *)(r4 + 0x50)
    4240:	bf 49 00 00 00 00 00 00	r9 = r4
    4241:	07 09 00 00 28 00 00 00	r9 += 0x28
    4242:	7b 9a 68 ff 00 00 00 00	*(u64 *)(r10 - 0x98) = r9
    4243:	bf 49 00 00 00 00 00 00	r9 = r4
    4244:	07 09 00 00 58 00 00 00	r9 += 0x58
    4245:	7b 9a 60 ff 00 00 00 00	*(u64 *)(r10 - 0xa0) = r9
    4246:	7b 6a 58 ff 00 00 00 00	*(u64 *)(r10 - 0xa8) = r6
    4247:	bf 46 00 00 00 00 00 00	r6 = r4
    4248:	07 06 00 00 48 00 00 00	r6 += 0x48
    4249:	7b 6a 50 ff 00 00 00 00	*(u64 *)(r10 - 0xb0) = r6
    4250:	07 04 00 00 08 00 00 00	r4 += 0x8
    4251:	7b 4a 48 ff 00 00 00 00	*(u64 *)(r10 - 0xb8) = r4
    4252:	7b 4a a0 fd 00 00 00 00	*(u64 *)(r10 - 0x260) = r4
    4253:	b7 09 00 00 01 00 00 00	r9 = 0x1
    4254:	55 05 01 00 00 00 00 00	if r5 != 0x0 goto +0x1 <.text+0x83e0>
    4255:	b7 09 00 00 00 00 00 00	r9 = 0x0
    4256:	73 9a 7a ff 00 00 00 00	*(u8 *)(r10 - 0x86) = r9
    4257:	b7 09 00 00 01 00 00 00	r9 = 0x1
    4258:	55 08 01 00 00 00 00 00	if r8 != 0x0 goto +0x1 <.text+0x8400>
    4259:	b7 09 00 00 00 00 00 00	r9 = 0x0
    4260:	73 9a 78 ff 00 00 00 00	*(u8 *)(r10 - 0x88) = r9
    4261:	73 9a a9 fd 00 00 00 00	*(u8 *)(r10 - 0x257) = r9
    4262:	b7 08 00 00 01 00 00 00	r8 = 0x1
    4263:	55 00 01 00 00 00 00 00	if r0 != 0x0 goto +0x1 <.text+0x8428>
    4264:	b7 08 00 00 00 00 00 00	r8 = 0x0
    4265:	73 8a 79 ff 00 00 00 00	*(u8 *)(r10 - 0x87) = r8
    4266:	73 8a a8 fd 00 00 00 00	*(u8 *)(r10 - 0x258) = r8
    4267:	7a 0a 70 ff 00 00 00 00	*(u64 *)(r10 - 0x90) = 0x0
    4268:	79 74 40 00 00 00 00 00	r4 = *(u64 *)(r7 + 0x40)
    4269:	71 40 02 00 00 00 00 00	r0 = *(u8 *)(r4 + 0x2)
    4270:	71 48 01 00 00 00 00 00	r8 = *(u8 *)(r4 + 0x1)
    4271:	71 45 03 00 00 00 00 00	r5 = *(u8 *)(r4 + 0x3)
    4272:	79 46 50 00 00 00 00 00	r6 = *(u64 *)(r4 + 0x50)
    4273:	bf 49 00 00 00 00 00 00	r9 = r4
    4274:	07 09 00 00 28 00 00 00	r9 += 0x28
    4275:	7b 9a a0 ff 00 00 00 00	*(u64 *)(r10 - 0x60) = r9
    4276:	bf 49 00 00 00 00 00 00	r9 = r4
    4277:	07 09 00 00 58 00 00 00	r9 += 0x58
    4278:	7b 9a 98 ff 00 00 00 00	*(u64 *)(r10 - 0x68) = r9
    4279:	7b 6a 90 ff 00 00 00 00	*(u64 *)(r10 - 0x70) = r6
    4280:	bf 46 00 00 00 00 00 00	r6 = r4
    4281:	07 06 00 00 48 00 00 00	r6 += 0x48
    4282:	7b 6a 88 ff 00 00 00 00	*(u64 *)(r10 - 0x78) = r6
    4283:	07 04 00 00 08 00 00 00	r4 += 0x8
    4284:	7b 4a 80 ff 00 00 00 00	*(u64 *)(r10 - 0x80) = r4
    4285:	7b 4a b0 fd 00 00 00 00	*(u64 *)(r10 - 0x250) = r4
    4286:	b7 09 00 00 01 00 00 00	r9 = 0x1
    4287:	55 05 01 00 00 00 00 00	if r5 != 0x0 goto +0x1 <.text+0x84e8>
    4288:	b7 09 00 00 00 00 00 00	r9 = 0x0
    4289:	73 9a b2 ff 00 00 00 00	*(u8 *)(r10 - 0x4e) = r9
    4290:	b7 09 00 00 01 00 00 00	r9 = 0x1
    4291:	55 08 01 00 00 00 00 00	if r8 != 0x0 goto +0x1 <.text+0x8508>
    4292:	b7 09 00 00 00 00 00 00	r9 = 0x0
    4293:	bf 28 00 00 00 00 00 00	r8 = r2
    4294:	73 9a b0 ff 00 00 00 00	*(u8 *)(r10 - 0x50) = r9
    4295:	73 9a b9 fd 00 00 00 00	*(u8 *)(r10 - 0x247) = r9
    4296:	b7 02 00 00 01 00 00 00	r2 = 0x1
    4297:	55 00 01 00 00 00 00 00	if r0 != 0x0 goto +0x1 <.text+0x8538>
    4298:	b7 02 00 00 00 00 00 00	r2 = 0x0
    4299:	73 2a b1 ff 00 00 00 00	*(u8 *)(r10 - 0x4f) = r2
    4300:	73 2a b8 fd 00 00 00 00	*(u8 *)(r10 - 0x248) = r2
    4301:	7a 0a a8 ff 00 00 00 00	*(u64 *)(r10 - 0x58) = 0x0
    4302:	79 a2 20 fd 00 00 00 00	r2 = *(u64 *)(r10 - 0x2e0)
    4303:	73 2a c8 ff 00 00 00 00	*(u8 *)(r10 - 0x38) = r2
    4304:	7b 3a c0 ff 00 00 00 00	*(u64 *)(r10 - 0x40) = r3
    4305:	18 02 00 00 a7 61 0c e7 00 00 00 00 ed 4e a6 fb	r2 = -0x459b11218f39e59 ll
    4307:	7b 2a b8 ff 00 00 00 00	*(u64 *)(r10 - 0x48) = r2
    4308:	7a 0a c9 ff 00 00 00 00	*(u64 *)(r10 - 0x37) = 0x0
    4309:	bf a2 00 00 00 00 00 00	r2 = r10
    4310:	07 02 00 00 b8 ff ff ff	r2 += -0x48
    4311:	7b 2a f0 ff 00 00 00 00	*(u64 *)(r10 - 0x10) = r2
    4312:	bf a2 00 00 00 00 00 00	r2 = r10
    4313:	07 02 00 00 30 fd ff ff	r2 += -0x2d0
    4314:	7b 2a e0 ff 00 00 00 00	*(u64 *)(r10 - 0x20) = r2
    4315:	7b 1a d8 ff 00 00 00 00	*(u64 *)(r10 - 0x28) = r1
    4316:	7a 0a f8 ff 19 00 00 00	*(u64 *)(r10 - 0x8) = 0x19
    4317:	7a 0a e8 ff 09 00 00 00	*(u64 *)(r10 - 0x18) = 0x9
    4318:	bf a1 00 00 00 00 00 00	r1 = r10
    4319:	07 01 00 00 d8 ff ff ff	r1 += -0x28
    4320:	bf a2 00 00 00 00 00 00	r2 = r10
    4321:	07 02 00 00 c0 fd ff ff	r2 += -0x240
    4322:	b7 03 00 00 09 00 00 00	r3 = 0x9
    4323:	b7 04 00 00 08 00 00 00	r4 = 0x8
    4324:	b7 05 00 00 00 00 00 00	r5 = 0x0
    4325:	85 10 00 00 ff ff ff ff	call -0x1
    4326:	79 a1 28 fd 00 00 00 00	r1 = *(u64 *)(r10 - 0x2d8)
    4327:	07 01 00 00 f7 ff ff ff	r1 += -0x9
    4328:	7b 18 08 00 00 00 00 00	*(u64 *)(r8 + 0x8) = r1
    4329:	07 07 00 00 48 00 00 00	r7 += 0x48
    4330:	7b 78 00 00 00 00 00 00	*(u64 *)(r8 + 0x0) = r7
    4331:	b7 00 00 00 6f 17 00 00	r0 = 0x176f
    4332:	95 00 00 00 00 00 00 00	exit

0000000000008768 <entrypoint>:
    4333:	bf 16 00 00 00 00 00 00	r6 = r1
    4334:	07 06 00 00 08 00 00 00	r6 += 0x8
    4335:	79 10 00 00 00 00 00 00	r0 = *(u64 *)(r1 + 0x0)
    4336:	15 00 72 00 00 00 00 00	if r0 == 0x0 goto +0x72 <entrypoint+0x3b0>
    4337:	7b 6a 00 f6 00 00 00 00	*(u64 *)(r10 - 0xa00) = r6
    4338:	79 12 58 00 00 00 00 00	r2 = *(u64 *)(r1 + 0x58)
    4339:	0f 21 00 00 00 00 00 00	r1 += r2
    4340:	07 01 00 00 6f 28 00 00	r1 += 0x286f
    4341:	57 01 00 00 f8 ff ff ff	r1 &= -0x8
    4342:	bf 16 00 00 00 00 00 00	r6 = r1
    4343:	15 00 6b 00 01 00 00 00	if r0 == 0x1 goto +0x6b <entrypoint+0x3b0>
    4344:	15 00 62 00 02 00 00 00	if r0 == 0x2 goto +0x62 <entrypoint+0x370>
    4345:	bf a2 00 00 00 00 00 00	r2 = r10
    4346:	07 02 00 00 00 f6 ff ff	r2 += -0xa00
    4347:	bf 03 00 00 00 00 00 00	r3 = r0
    4348:	a5 00 56 00 06 00 00 00	if r0 < 0x6 goto +0x56 <entrypoint+0x330>
    4349:	bf a2 00 00 00 00 00 00	r2 = r10
    4350:	07 02 00 00 00 f6 ff ff	r2 += -0xa00
    4351:	bf 03 00 00 00 00 00 00	r3 = r0
    4352:	05 00 0b 00 00 00 00 00	goto +0xb <entrypoint+0xf8>
    4353:	07 02 00 00 28 00 00 00	r2 += 0x28
    4354:	71 14 00 00 00 00 00 00	r4 = *(u8 *)(r1 + 0x0)
    4355:	55 04 46 00 ff 00 00 00	if r4 != 0xff goto +0x46 <entrypoint+0x2e8>
    4356:	7b 12 00 00 00 00 00 00	*(u64 *)(r2 + 0x0) = r1
    4357:	79 14 50 00 00 00 00 00	r4 = *(u64 *)(r1 + 0x50)
    4358:	0f 41 00 00 00 00 00 00	r1 += r4
    4359:	07 01 00 00 67 28 00 00	r1 += 0x2867
    4360:	57 01 00 00 f8 ff ff ff	r1 &= -0x8
    4361:	07 03 00 00 fb ff ff ff	r3 += -0x5
    4362:	25 03 01 00 05 00 00 00	if r3 > 0x5 goto +0x1 <entrypoint+0xf8>
    4363:	05 00 47 00 00 00 00 00	goto +0x47 <entrypoint+0x330>
    4364:	71 14 00 00 00 00 00 00	r4 = *(u8 *)(r1 + 0x0)
    4365:	15 04 01 00 ff 00 00 00	if r4 == 0xff goto +0x1 <entrypoint+0x110>
    4366:	05 00 1b 00 00 00 00 00	goto +0x1b <entrypoint+0x1e8>
    4367:	7b 12 08 00 00 00 00 00	*(u64 *)(r2 + 0x8) = r1
    4368:	79 14 50 00 00 00 00 00	r4 = *(u64 *)(r1 + 0x50)
    4369:	0f 41 00 00 00 00 00 00	r1 += r4
    4370:	07 01 00 00 67 28 00 00	r1 += 0x2867
    4371:	57 01 00 00 f8 ff ff ff	r1 &= -0x8
    4372:	71 14 00 00 00 00 00 00	r4 = *(u8 *)(r1 + 0x0)
    4373:	55 04 1c 00 ff 00 00 00	if r4 != 0xff goto +0x1c <entrypoint+0x228>
    4374:	7b 12 10 00 00 00 00 00	*(u64 *)(r2 + 0x10) = r1
    4375:	79 14 50 00 00 00 00 00	r4 = *(u64 *)(r1 + 0x50)
    4376:	0f 41 00 00 00 00 00 00	r1 += r4
    4377:	07 01 00 00 67 28 00 00	r1 += 0x2867
    4378:	57 01 00 00 f8 ff ff ff	r1 &= -0x8
    4379:	71 14 00 00 00 00 00 00	r4 = *(u8 *)(r1 + 0x0)
    4380:	55 04 1d 00 ff 00 00 00	if r4 != 0xff goto +0x1d <entrypoint+0x268>
    4381:	7b 12 18 00 00 00 00 00	*(u64 *)(r2 + 0x18) = r1
    4382:	79 14 50 00 00 00 00 00	r4 = *(u64 *)(r1 + 0x50)
    4383:	0f 41 00 00 00 00 00 00	r1 += r4
    4384:	07 01 00 00 67 28 00 00	r1 += 0x2867
    4385:	57 01 00 00 f8 ff ff ff	r1 &= -0x8
    4386:	71 14 00 00 00 00 00 00	r4 = *(u8 *)(r1 + 0x0)
    4387:	55 04 1e 00 ff 00 00 00	if r4 != 0xff goto +0x1e <entrypoint+0x2a8>
    4388:	7b 12 20 00 00 00 00 00	*(u64 *)(r2 + 0x20) = r1
    4389:	79 14 50 00 00 00 00 00	r4 = *(u64 *)(r1 + 0x50)
    4390:	0f 41 00 00 00 00 00 00	r1 += r4
    4391:	07 01 00 00 67 28 00 00	r1 += 0x2867
    4392:	57 01 00 00 f8 ff ff ff	r1 &= -0x8
    4393:	05 00 d7 ff 00 00 00 00	goto -0x29 <entrypoint+0xa0>
    4394:	67 04 00 00 03 00 00 00	r4 <<= 0x3
    4395:	bf a5 00 00 00 00 00 00	r5 = r10
    4396:	07 05 00 00 00 f6 ff ff	r5 += -0xa00
    4397:	0f 45 00 00 00 00 00 00	r5 += r4
    4398:	79 54 00 00 00 00 00 00	r4 = *(u64 *)(r5 + 0x0)
    4399:	7b 42 08 00 00 00 00 00	*(u64 *)(r2 + 0x8) = r4
    4400:	07 01 00 00 08 00 00 00	r1 += 0x8
    4401:	05 00 e2 ff 00 00 00 00	goto -0x1e <entrypoint+0x138>
    4402:	67 04 00 00 03 00 00 00	r4 <<= 0x3
    4403:	bf a5 00 00 00 00 00 00	r5 = r10
    4404:	07 05 00 00 00 f6 ff ff	r5 += -0xa00
    4405:	0f 45 00 00 00 00 00 00	r5 += r4
    4406:	79 54 00 00 00 00 00 00	r4 = *(u64 *)(r5 + 0x0)
    4407:	7b 42 10 00 00 00 00 00	*(u64 *)(r2 + 0x10) = r4
    4408:	07 01 00 00 08 00 00 00	r1 += 0x8
    4409:	05 00 e1 ff 00 00 00 00	goto -0x1f <entrypoint+0x170>
    4410:	67 04 00 00 03 00 00 00	r4 <<= 0x3
    4411:	bf a5 00 00 00 00 00 00	r5 = r10
    4412:	07 05 00 00 00 f6 ff ff	r5 += -0xa00
    4413:	0f 45 00 00 00 00 00 00	r5 += r4
    4414:	79 54 00 00 00 00 00 00	r4 = *(u64 *)(r5 + 0x0)
    4415:	7b 42 18 00 00 00 00 00	*(u64 *)(r2 + 0x18) = r4
    4416:	07 01 00 00 08 00 00 00	r1 += 0x8
    4417:	05 00 e0 ff 00 00 00 00	goto -0x20 <entrypoint+0x1a8>
    4418:	67 04 00 00 03 00 00 00	r4 <<= 0x3
    4419:	bf a5 00 00 00 00 00 00	r5 = r10
    4420:	07 05 00 00 00 f6 ff ff	r5 += -0xa00
    4421:	0f 45 00 00 00 00 00 00	r5 += r4
    4422:	79 54 00 00 00 00 00 00	r4 = *(u64 *)(r5 + 0x0)
    4423:	7b 42 20 00 00 00 00 00	*(u64 *)(r2 + 0x20) = r4
    4424:	07 01 00 00 08 00 00 00	r1 += 0x8
    4425:	05 00 b7 ff 00 00 00 00	goto -0x49 <entrypoint+0xa0>
    4426:	67 04 00 00 03 00 00 00	r4 <<= 0x3
    4427:	bf a5 00 00 00 00 00 00	r5 = r10
    4428:	07 05 00 00 00 f6 ff ff	r5 += -0xa00
    4429:	0f 45 00 00 00 00 00 00	r5 += r4
    4430:	79 54 00 00 00 00 00 00	r4 = *(u64 *)(r5 + 0x0)
    4431:	7b 42 00 00 00 00 00 00	*(u64 *)(r2 + 0x0) = r4
    4432:	07 01 00 00 08 00 00 00	r1 += 0x8
    4433:	07 03 00 00 fb ff ff ff	r3 += -0x5
    4434:	25 03 b9 ff 05 00 00 00	if r3 > 0x5 goto -0x47 <entrypoint+0xf8>
    4435:	65 03 9b 00 02 00 00 00	if r3 s> 0x2 goto +0x9b <entrypoint+0x810>
    4436:	bf 16 00 00 00 00 00 00	r6 = r1
    4437:	15 03 0d 00 01 00 00 00	if r3 == 0x1 goto +0xd <entrypoint+0x3b0>
    4438:	71 13 00 00 00 00 00 00	r3 = *(u8 *)(r1 + 0x0)
    4439:	15 03 01 00 ff 00 00 00	if r3 == 0xff goto +0x1 <entrypoint+0x360>
    4440:	05 00 43 02 00 00 00 00	goto +0x243 <entrypoint+0x1578>
    4441:	7b 12 08 00 00 00 00 00	*(u64 *)(r2 + 0x8) = r1
    4442:	05 00 03 00 00 00 00 00	goto +0x3 <entrypoint+0x388>
    4443:	71 12 00 00 00 00 00 00	r2 = *(u8 *)(r1 + 0x0)
    4444:	55 02 ef 01 ff 00 00 00	if r2 != 0xff goto +0x1ef <entrypoint+0x12f8>
    4445:	7b 1a 08 f6 00 00 00 00	*(u64 *)(r10 - 0x9f8) = r1
    4446:	79 12 50 00 00 00 00 00	r2 = *(u64 *)(r1 + 0x50)
    4447:	0f 21 00 00 00 00 00 00	r1 += r2
    4448:	07 01 00 00 67 28 00 00	r1 += 0x2867
    4449:	57 01 00 00 f8 ff ff ff	r1 &= -0x8
    4450:	bf 16 00 00 00 00 00 00	r6 = r1
    4451:	bf 69 00 00 00 00 00 00	r9 = r6
    4452:	07 09 00 00 08 00 00 00	r9 += 0x8
    4453:	79 68 00 00 00 00 00 00	r8 = *(u64 *)(r6 + 0x0)
    4454:	7b 0a e0 f5 00 00 00 00	*(u64 *)(r10 - 0xa20) = r0
    4455:	15 08 15 00 00 00 00 00	if r8 == 0x0 goto +0x15 <entrypoint+0x480>
    4456:	bf 87 00 00 00 00 00 00	r7 = r8
    4457:	07 07 00 00 ff ff ff ff	r7 += -0x1
    4458:	bf 62 00 00 00 00 00 00	r2 = r6
    4459:	07 02 00 00 09 00 00 00	r2 += 0x9
    4460:	71 61 08 00 00 00 00 00	r1 = *(u8 *)(r6 + 0x8)
    4461:	73 1a f0 fd 00 00 00 00	*(u8 *)(r10 - 0x210) = r1
    4462:	65 01 16 00 01 00 00 00	if r1 s> 0x1 goto +0x16 <entrypoint+0x4c0>
    4463:	15 01 6d 00 00 00 00 00	if r1 == 0x0 goto +0x6d <entrypoint+0x780>
    4464:	7b 2a d8 f5 00 00 00 00	*(u64 *)(r10 - 0xa28) = r2
    4465:	15 01 01 00 01 00 00 00	if r1 == 0x1 goto +0x1 <entrypoint+0x430>
    4466:	05 00 52 00 00 00 00 00	goto +0x52 <entrypoint+0x6c0>
    4467:	15 07 98 00 00 00 00 00	if r7 == 0x0 goto +0x98 <entrypoint+0x8f8>
    4468:	a5 08 01 00 0a 00 00 00	if r8 < 0xa goto +0x1 <entrypoint+0x448>
    4469:	05 00 29 01 00 00 00 00	goto +0x129 <entrypoint+0xd90>
    4470:	0f 89 00 00 00 00 00 00	r9 += r8
    4471:	18 01 00 00 08 3e 02 00 00 00 00 00 00 00 00 00	r1 = 0x23e08 ll
    4473:	85 10 00 00 4d 1a 00 00	call 0x1a4d
    4474:	b7 07 00 00 00 00 00 00	r7 = 0x0
    4475:	7b 9a d8 f5 00 00 00 00	*(u64 *)(r10 - 0xa28) = r9
    4476:	05 00 93 00 00 00 00 00	goto +0x93 <entrypoint+0x918>
    4477:	18 01 00 00 08 3e 02 00 00 00 00 00 00 00 00 00	r1 = 0x23e08 ll
    4479:	85 10 00 00 47 1a 00 00	call 0x1a47
    4480:	7b 0a 08 fe 00 00 00 00	*(u64 *)(r10 - 0x1f8) = r0
    4481:	b7 07 00 00 00 00 00 00	r7 = 0x0
    4482:	72 0a 00 fe 04 00 00 00	*(u8 *)(r10 - 0x200) = 0x4
    4483:	7b 9a d8 f5 00 00 00 00	*(u64 *)(r10 - 0xa28) = r9
    4484:	05 00 8d 00 00 00 00 00	goto +0x8d <entrypoint+0x928>
    4485:	7b 7a e8 f5 00 00 00 00	*(u64 *)(r10 - 0xa18) = r7
    4486:	7b 2a d8 f5 00 00 00 00	*(u64 *)(r10 - 0xa28) = r2
    4487:	15 01 5e 00 02 00 00 00	if r1 == 0x2 goto +0x5e <entrypoint+0x7c8>
    4488:	79 a0 e0 f5 00 00 00 00	r0 = *(u64 *)(r10 - 0xa20)
    4489:	79 a7 e8 f5 00 00 00 00	r7 = *(u64 *)(r10 - 0xa18)
    4490:	15 01 01 00 03 00 00 00	if r1 == 0x3 goto +0x1 <entrypoint+0x4f8>
    4491:	05 00 39 00 00 00 00 00	goto +0x39 <entrypoint+0x6c0>
    4492:	15 07 7f 00 00 00 00 00	if r7 == 0x0 goto +0x7f <entrypoint+0x8f8>
    4493:	a5 08 e8 ff 0a 00 00 00	if r8 < 0xa goto -0x18 <entrypoint+0x448>
    4494:	bf 67 00 00 00 00 00 00	r7 = r6
    4495:	07 07 00 00 12 00 00 00	r7 += 0x12
    4496:	bf 85 00 00 00 00 00 00	r5 = r8
    4497:	07 05 00 00 f6 ff ff ff	r5 += -0xa
    4498:	15 05 8d 01 00 00 00 00	if r5 == 0x0 goto +0x18d <entrypoint+0x1198>
    4499:	79 a2 d8 f5 00 00 00 00	r2 = *(u64 *)(r10 - 0xa28)
    4500:	71 22 00 00 00 00 00 00	r2 = *(u8 *)(r2 + 0x0)
    4501:	7b 2a d0 f5 00 00 00 00	*(u64 *)(r10 - 0xa30) = r2
    4502:	79 63 0a 00 00 00 00 00	r3 = *(u64 *)(r6 + 0xa)
    4503:	b7 02 00 00 00 00 00 00	r2 = 0x0
    4504:	bf 87 00 00 00 00 00 00	r7 = r8
    4505:	07 07 00 00 f5 ff ff ff	r7 += -0xb
    4506:	bf 64 00 00 00 00 00 00	r4 = r6
    4507:	07 04 00 00 13 00 00 00	r4 += 0x13
    4508:	7b 4a d8 f5 00 00 00 00	*(u64 *)(r10 - 0xa28) = r4
    4509:	71 60 12 00 00 00 00 00	r0 = *(u8 *)(r6 + 0x12)
    4510:	73 0a a0 fe 00 00 00 00	*(u8 *)(r10 - 0x160) = r0
    4511:	b7 04 00 00 00 00 00 00	r4 = 0x0
    4512:	15 00 08 00 00 00 00 00	if r0 == 0x0 goto +0x8 <entrypoint+0x5e0>
    4513:	55 00 5c 01 01 00 00 00	if r0 != 0x1 goto +0x15c <entrypoint+0x1088>
    4514:	a5 05 7b 01 05 00 00 00	if r5 < 0x5 goto +0x17b <entrypoint+0x1188>
    4515:	b7 02 00 00 01 00 00 00	r2 = 0x1
    4516:	61 64 13 00 00 00 00 00	r4 = *(u32 *)(r6 + 0x13)
    4517:	07 08 00 00 f1 ff ff ff	r8 += -0xf
    4518:	07 06 00 00 17 00 00 00	r6 += 0x17
    4519:	7b 6a d8 f5 00 00 00 00	*(u64 *)(r10 - 0xa28) = r6
    4520:	bf 87 00 00 00 00 00 00	r7 = r8
    4521:	7b 4a c8 f5 00 00 00 00	*(u64 *)(r10 - 0xa38) = r4
    4522:	bf 24 00 00 00 00 00 00	r4 = r2
    4523:	15 07 60 00 00 00 00 00	if r7 == 0x0 goto +0x60 <entrypoint+0x8f8>
    4524:	bf 76 00 00 00 00 00 00	r6 = r7
    4525:	bf 79 00 00 00 00 00 00	r9 = r7
    4526:	07 09 00 00 ff ff ff ff	r9 += -0x1
    4527:	79 a5 d8 f5 00 00 00 00	r5 = *(u64 *)(r10 - 0xa28)
    4528:	bf 58 00 00 00 00 00 00	r8 = r5
    4529:	07 08 00 00 01 00 00 00	r8 += 0x1
    4530:	71 52 00 00 00 00 00 00	r2 = *(u8 *)(r5 + 0x0)
    4531:	73 2a a0 fe 00 00 00 00	*(u8 *)(r10 - 0x160) = r2
    4532:	15 02 08 00 00 00 00 00	if r2 == 0x0 goto +0x8 <entrypoint+0x680>
    4533:	55 02 6f 01 01 00 00 00	if r2 != 0x1 goto +0x16f <entrypoint+0x11c0>
    4534:	a5 06 88 01 09 00 00 00	if r6 < 0x9 goto +0x188 <entrypoint+0x1290>
    4535:	b7 02 00 00 01 00 00 00	r2 = 0x1
    4536:	79 a8 d8 f5 00 00 00 00	r8 = *(u64 *)(r10 - 0xa28)
    4537:	bf 69 00 00 00 00 00 00	r9 = r6
    4538:	79 87 01 00 00 00 00 00	r7 = *(u64 *)(r8 + 0x1)
    4539:	07 09 00 00 f7 ff ff ff	r9 += -0x9
    4540:	07 08 00 00 09 00 00 00	r8 += 0x9
    4541:	15 09 88 01 00 00 00 00	if r9 == 0x0 goto +0x188 <entrypoint+0x12c8>
    4542:	7b 2a c0 f5 00 00 00 00	*(u64 *)(r10 - 0xa40) = r2
    4543:	71 85 00 00 00 00 00 00	r5 = *(u8 *)(r8 + 0x0)
    4544:	07 09 00 00 ff ff ff ff	r9 += -0x1
    4545:	07 08 00 00 01 00 00 00	r8 += 0x1
    4546:	7b 8a d8 f5 00 00 00 00	*(u64 *)(r10 - 0xa28) = r8
    4547:	7b 9a e8 f5 00 00 00 00	*(u64 *)(r10 - 0xa18) = r9
    4548:	05 00 21 00 00 00 00 00	goto +0x21 <entrypoint+0x7c8>
    4549:	18 01 00 00 50 43 02 00 00 00 00 00 00 00 00 00	r1 = 0x24350 ll
    4551:	7b 1a 30 ff 00 00 00 00	*(u64 *)(r10 - 0xd0) = r1
    4552:	bf a1 00 00 00 00 00 00	r1 = r10
    4553:	07 01 00 00 b0 fe ff ff	r1 += -0x150
    4554:	7b 1a 40 ff 00 00 00 00	*(u64 *)(r10 - 0xc0) = r1
    4555:	18 01 00 00 d0 0a 00 00 00 00 00 00 00 00 00 00	r1 = 0xad0 ll
    4557:	7b 1a b8 fe 00 00 00 00	*(u64 *)(r10 - 0x148) = r1
    4558:	bf a1 00 00 00 00 00 00	r1 = r10
    4559:	07 01 00 00 f0 fd ff ff	r1 += -0x210
    4560:	7b 1a b0 fe 00 00 00 00	*(u64 *)(r10 - 0x150) = r1
    4561:	7a 0a 50 ff 00 00 00 00	*(u64 *)(r10 - 0xb0) = 0x0
    4562:	7a 0a 38 ff 01 00 00 00	*(u64 *)(r10 - 0xc8) = 0x1
    4563:	7a 0a 48 ff 01 00 00 00	*(u64 *)(r10 - 0xb8) = 0x1
    4564:	bf a6 00 00 00 00 00 00	r6 = r10
    4565:	07 06 00 00 68 fe ff ff	r6 += -0x198
    4566:	bf a2 00 00 00 00 00 00	r2 = r10
    4567:	07 02 00 00 30 ff ff ff	r2 += -0xd0
    4568:	bf 61 00 00 00 00 00 00	r1 = r6
    4569:	85 10 00 00 13 1d 00 00	call 0x1d13
    4570:	bf 61 00 00 00 00 00 00	r1 = r6
    4571:	85 10 00 00 48 ee ff ff	call -0x11b8
    4572:	05 00 33 00 00 00 00 00	goto +0x33 <entrypoint+0x918>
    4573:	15 07 2d 00 00 00 00 00	if r7 == 0x0 goto +0x2d <entrypoint+0x8f0>
    4574:	a5 08 97 ff 0a 00 00 00	if r8 < 0xa goto -0x69 <entrypoint+0x448>
    4575:	79 63 0a 00 00 00 00 00	r3 = *(u64 *)(r6 + 0xa)
    4576:	07 08 00 00 f6 ff ff ff	r8 += -0xa
    4577:	71 62 09 00 00 00 00 00	r2 = *(u8 *)(r6 + 0x9)
    4578:	7b 2a d0 f5 00 00 00 00	*(u64 *)(r10 - 0xa30) = r2
    4579:	07 06 00 00 12 00 00 00	r6 += 0x12
    4580:	7b 6a d8 f5 00 00 00 00	*(u64 *)(r10 - 0xa28) = r6
    4581:	7b 8a e8 f5 00 00 00 00	*(u64 *)(r10 - 0xa18) = r8
    4582:	79 a0 b8 f5 00 00 00 00	r0 = *(u64 *)(r10 - 0xa48)
    4583:	73 0a 04 fe 00 00 00 00	*(u8 *)(r10 - 0x1fc) = r0
    4584:	73 2a 03 fe 00 00 00 00	*(u8 *)(r10 - 0x1fd) = r2
    4585:	73 5a 02 fe 00 00 00 00	*(u8 *)(r10 - 0x1fe) = r5
    4586:	61 a6 04 fe 00 00 00 00	r6 = *(u32 *)(r10 - 0x1fc)
    4587:	79 a8 c8 f5 00 00 00 00	r8 = *(u64 *)(r10 - 0xa38)
    4588:	79 a9 d0 f5 00 00 00 00	r9 = *(u64 *)(r10 - 0xa30)
    4589:	79 a0 c0 f5 00 00 00 00	r0 = *(u64 *)(r10 - 0xa40)
    4590:	05 00 68 00 00 00 00 00	goto +0x68 <entrypoint+0xb50>
    4591:	15 03 90 00 03 00 00 00	if r3 == 0x3 goto +0x90 <entrypoint+0xc98>
    4592:	15 03 9b 00 04 00 00 00	if r3 == 0x4 goto +0x9b <entrypoint+0xcf8>
    4593:	71 13 00 00 00 00 00 00	r3 = *(u8 *)(r1 + 0x0)
    4594:	15 03 01 00 ff 00 00 00	if r3 == 0xff goto +0x1 <entrypoint+0x838>
    4595:	05 00 70 01 00 00 00 00	goto +0x170 <entrypoint+0x13b8>
    4596:	7b 12 08 00 00 00 00 00	*(u64 *)(r2 + 0x8) = r1
    4597:	79 13 50 00 00 00 00 00	r3 = *(u64 *)(r1 + 0x50)
    4598:	0f 31 00 00 00 00 00 00	r1 += r3
    4599:	07 01 00 00 67 28 00 00	r1 += 0x2867
    4600:	57 01 00 00 f8 ff ff ff	r1 &= -0x8
    4601:	71 13 00 00 00 00 00 00	r3 = *(u8 *)(r1 + 0x0)
    4602:	55 03 71 01 ff 00 00 00	if r3 != 0xff goto +0x171 <entrypoint+0x13f8>
    4603:	7b 12 10 00 00 00 00 00	*(u64 *)(r2 + 0x10) = r1
    4604:	79 13 50 00 00 00 00 00	r3 = *(u64 *)(r1 + 0x50)
    4605:	0f 31 00 00 00 00 00 00	r1 += r3
    4606:	07 01 00 00 67 28 00 00	r1 += 0x2867
    4607:	57 01 00 00 f8 ff ff ff	r1 &= -0x8
    4608:	71 13 00 00 00 00 00 00	r3 = *(u8 *)(r1 + 0x0)
    4609:	55 03 72 01 ff 00 00 00	if r3 != 0xff goto +0x172 <entrypoint+0x1438>
    4610:	7b 12 18 00 00 00 00 00	*(u64 *)(r2 + 0x18) = r1
    4611:	79 13 50 00 00 00 00 00	r3 = *(u64 *)(r1 + 0x50)
    4612:	0f 31 00 00 00 00 00 00	r1 += r3
    4613:	07 01 00 00 67 28 00 00	r1 += 0x2867
    4614:	57 01 00 00 f8 ff ff ff	r1 &= -0x8
    4615:	71 13 00 00 00 00 00 00	r3 = *(u8 *)(r1 + 0x0)
    4616:	55 03 73 01 ff 00 00 00	if r3 != 0xff goto +0x173 <entrypoint+0x1478>
    4617:	7b 12 20 00 00 00 00 00	*(u64 *)(r2 + 0x20) = r1
    4618:	05 00 53 ff 00 00 00 00	goto -0xad <entrypoint+0x388>
    4619:	7b 2a d8 f5 00 00 00 00	*(u64 *)(r10 - 0xa28) = r2
    4620:	18 01 00 00 08 3e 02 00 00 00 00 00 00 00 00 00	r1 = 0x23e08 ll
    4622:	85 10 00 00 b8 19 00 00	call 0x19b8
    4623:	b7 07 00 00 00 00 00 00	r7 = 0x0
    4624:	7b 0a 08 fe 00 00 00 00	*(u64 *)(r10 - 0x1f8) = r0
    4625:	72 0a 00 fe 04 00 00 00	*(u8 *)(r10 - 0x200) = 0x4
    4626:	62 0a 33 ff 6f 72 3a 20	*(u32 *)(r10 - 0xcd) = 0x203a726f
    4627:	62 0a 30 ff 45 72 72 6f	*(u32 *)(r10 - 0xd0) = 0x6f727245
    4628:	7a 0a f8 ff 07 00 00 00	*(u64 *)(r10 - 0x8) = 0x7
    4629:	7a 0a 78 fe 00 00 00 00	*(u64 *)(r10 - 0x188) = 0x0
    4630:	7a 0a 70 fe 01 00 00 00	*(u64 *)(r10 - 0x190) = 0x1
    4631:	7a 0a 68 fe 00 00 00 00	*(u64 *)(r10 - 0x198) = 0x0
    4632:	18 01 00 00 a8 40 02 00 00 00 00 00 00 00 00 00	r1 = 0x240a8 ll
    4634:	7b 1a d8 fe 00 00 00 00	*(u64 *)(r10 - 0x128) = r1
    4635:	bf a1 00 00 00 00 00 00	r1 = r10
    4636:	07 01 00 00 68 fe ff ff	r1 += -0x198
    4637:	7b 1a d0 fe 00 00 00 00	*(u64 *)(r10 - 0x130) = r1
    4638:	72 0a e8 fe 03 00 00 00	*(u8 *)(r10 - 0x118) = 0x3
    4639:	7a 0a e0 fe 20 00 00 00	*(u64 *)(r10 - 0x120) = 0x20
    4640:	7a 0a c0 fe 00 00 00 00	*(u64 *)(r10 - 0x140) = 0x0
    4641:	7a 0a b0 fe 00 00 00 00	*(u64 *)(r10 - 0x150) = 0x0
    4642:	bf a1 00 00 00 00 00 00	r1 = r10
    4643:	07 01 00 00 08 fe ff ff	r1 += -0x1f8
    4644:	bf a2 00 00 00 00 00 00	r2 = r10
    4645:	07 02 00 00 b0 fe ff ff	r2 += -0x150
    4646:	85 10 00 00 3c 1b 00 00	call 0x1b3c
    4647:	55 00 4c 05 00 00 00 00	if r0 != 0x0 goto +0x54c <entrypoint+0x3438>
    4648:	7b 7a e8 f5 00 00 00 00	*(u64 *)(r10 - 0xa18) = r7
    4649:	79 a8 78 fe 00 00 00 00	r8 = *(u64 *)(r10 - 0x188)
    4650:	bf 86 00 00 00 00 00 00	r6 = r8
    4651:	a5 08 01 00 c1 00 00 00	if r8 < 0xc1 goto +0x1 <entrypoint+0xa00>
    4652:	b7 06 00 00 c1 00 00 00	r6 = 0xc1
    4653:	79 a2 70 fe 00 00 00 00	r2 = *(u64 *)(r10 - 0x190)
    4654:	bf a7 00 00 00 00 00 00	r7 = r10
    4655:	07 07 00 00 37 ff ff ff	r7 += -0xc9
    4656:	bf 71 00 00 00 00 00 00	r1 = r7
    4657:	bf 63 00 00 00 00 00 00	r3 = r6
    4658:	85 10 00 00 53 2a 00 00	call 0x2a53
    4659:	a5 08 02 00 c2 00 00 00	if r8 < 0xc2 goto +0x2 <entrypoint+0xa48>
    4660:	0f 67 00 00 00 00 00 00	r7 += r6
    4661:	72 07 ff ff 40 00 00 00	*(u8 *)(r7 - 0x1) = 0x40
    4662:	79 a2 f8 ff 00 00 00 00	r2 = *(u64 *)(r10 - 0x8)
    4663:	0f 62 00 00 00 00 00 00	r2 += r6
    4664:	7b 2a f8 ff 00 00 00 00	*(u64 *)(r10 - 0x8) = r2
    4665:	a5 02 03 00 c9 00 00 00	if r2 < 0xc9 goto +0x3 <entrypoint+0xa80>
    4666:	b7 02 00 00 c8 00 00 00	r2 = 0xc8
    4667:	72 0a f7 ff 40 00 00 00	*(u8 *)(r10 - 0x9) = 0x40
    4668:	7a 0a f8 ff c8 00 00 00	*(u64 *)(r10 - 0x8) = 0xc8
    4669:	bf a1 00 00 00 00 00 00	r1 = r10
    4670:	07 01 00 00 30 ff ff ff	r1 += -0xd0
    4671:	85 10 00 00 ff ff ff ff	call -0x1
    4672:	79 a7 20 fe 00 00 00 00	r7 = *(u64 *)(r10 - 0x1e0)
    4673:	79 a0 18 fe 00 00 00 00	r0 = *(u64 *)(r10 - 0x1e8)
    4674:	61 a8 14 fe 00 00 00 00	r8 = *(u32 *)(r10 - 0x1ec)
    4675:	61 a4 10 fe 00 00 00 00	r4 = *(u32 *)(r10 - 0x1f0)
    4676:	79 a3 08 fe 00 00 00 00	r3 = *(u64 *)(r10 - 0x1f8)
    4677:	61 a6 04 fe 00 00 00 00	r6 = *(u32 *)(r10 - 0x1fc)
    4678:	71 a2 03 fe 00 00 00 00	r2 = *(u8 *)(r10 - 0x1fd)
    4679:	71 a5 02 fe 00 00 00 00	r5 = *(u8 *)(r10 - 0x1fe)
    4680:	71 a9 01 fe 00 00 00 00	r9 = *(u8 *)(r10 - 0x1ff)
    4681:	71 a1 00 fe 00 00 00 00	r1 = *(u8 *)(r10 - 0x200)
    4682:	15 01 01 00 04 00 00 00	if r1 == 0x4 goto +0x1 <entrypoint+0xaf8>
    4683:	05 00 0b 00 00 00 00 00	goto +0xb <entrypoint+0xb50>
    4684:	bf 31 00 00 00 00 00 00	r1 = r3
    4685:	57 01 00 00 03 00 00 00	r1 &= 0x3
    4686:	55 01 7d 01 01 00 00 00	if r1 != 0x1 goto +0x17d <entrypoint+0x16f8>
    4687:	79 31 07 00 00 00 00 00	r1 = *(u64 *)(r3 + 0x7)
    4688:	79 12 00 00 00 00 00 00	r2 = *(u64 *)(r1 + 0x0)
    4689:	15 02 7a 01 00 00 00 00	if r2 == 0x0 goto +0x17a <entrypoint+0x16f8>
    4690:	79 31 ff ff 00 00 00 00	r1 = *(u64 *)(r3 - 0x1)
    4691:	8d 00 00 00 02 00 00 00	callx r0
    4692:	18 03 00 00 00 00 00 00 00 00 00 00 03 00 00 00	r3 = 0x300000000 ll
    4694:	05 00 ed 01 00 00 00 00	goto +0x1ed <entrypoint+0x1ab8>
    4695:	65 01 4c 01 01 00 00 00	if r1 s> 0x1 goto +0x14c <entrypoint+0x15b8>
    4696:	15 01 d8 01 00 00 00 00	if r1 == 0x0 goto +0x1d8 <entrypoint+0x1a20>
    4697:	7b 2a d0 f5 00 00 00 00	*(u64 *)(r10 - 0xa30) = r2
    4698:	79 a1 e8 f5 00 00 00 00	r1 = *(u64 *)(r10 - 0xa18)
    4699:	7b 1a 38 f0 00 00 00 00	*(u64 *)(r10 - 0xfc8) = r1
    4700:	79 a1 d8 f5 00 00 00 00	r1 = *(u64 *)(r10 - 0xa28)
    4701:	7b 1a 30 f0 00 00 00 00	*(u64 *)(r10 - 0xfd0) = r1
    4702:	79 a1 e0 f5 00 00 00 00	r1 = *(u64 *)(r10 - 0xa20)
    4703:	7b 1a 28 f0 00 00 00 00	*(u64 *)(r10 - 0xfd8) = r1
    4704:	bf a1 00 00 00 00 00 00	r1 = r10
    4705:	07 01 00 00 00 f6 ff ff	r1 += -0xa00
    4706:	7b 1a 20 f0 00 00 00 00	*(u64 *)(r10 - 0xfe0) = r1
    4707:	7b 5a 18 f0 00 00 00 00	*(u64 *)(r10 - 0xfe8) = r5
    4708:	7b 7a 10 f0 00 00 00 00	*(u64 *)(r10 - 0xff0) = r7
    4709:	7b 0a 08 f0 00 00 00 00	*(u64 *)(r10 - 0xff8) = r0
    4710:	7b 8a 00 f0 00 00 00 00	*(u64 *)(r10 - 0x1000) = r8
    4711:	bf a1 00 00 00 00 00 00	r1 = r10
    4712:	07 01 00 00 30 ff ff ff	r1 += -0xd0
    4713:	bf a5 00 00 00 00 00 00	r5 = r10
    4714:	bf 92 00 00 00 00 00 00	r2 = r9
    4715:	85 10 00 00 01 f2 ff ff	call -0xdff
    4716:	79 a2 30 ff 00 00 00 00	r2 = *(u64 *)(r10 - 0xd0)
    4717:	55 02 01 00 00 00 00 00	if r2 != 0x0 goto +0x1 <entrypoint+0xc10>
    4718:	05 00 99 01 00 00 00 00	goto +0x199 <entrypoint+0x18d8>
    4719:	b7 03 00 00 00 00 00 00	r3 = 0x0
    4720:	79 a1 38 ff 00 00 00 00	r1 = *(u64 *)(r10 - 0xc8)
    4721:	a5 01 d2 01 03 00 00 00	if r1 < 0x3 goto +0x1d2 <entrypoint+0x1ab8>
    4722:	7b 2a e8 f5 00 00 00 00	*(u64 *)(r10 - 0xa18) = r2
    4723:	7b 1a e0 f5 00 00 00 00	*(u64 *)(r10 - 0xa20) = r1
    4724:	79 a7 58 ff 00 00 00 00	r7 = *(u64 *)(r10 - 0xa8)
    4725:	79 a8 48 ff 00 00 00 00	r8 = *(u64 *)(r10 - 0xb8)
    4726:	79 a1 40 ff 00 00 00 00	r1 = *(u64 *)(r10 - 0xc0)
    4727:	7b 1a d8 f5 00 00 00 00	*(u64 *)(r10 - 0xa28) = r1
    4728:	bf a1 00 00 00 00 00 00	r1 = r10
    4729:	07 01 00 00 30 ff ff ff	r1 += -0xd0
    4730:	85 10 00 00 79 14 00 00	call 0x1479
    4731:	61 a1 30 ff 00 00 00 00	r1 = *(u32 *)(r10 - 0xd0)
    4732:	55 01 5d 00 01 00 00 00	if r1 != 0x1 goto +0x5d <entrypoint+0xf68>
    4733:	61 a2 38 ff 00 00 00 00	r2 = *(u32 *)(r10 - 0xc8)
    4734:	61 a0 34 ff 00 00 00 00	r0 = *(u32 *)(r10 - 0xcc)
    4735:	05 00 45 01 00 00 00 00	goto +0x145 <entrypoint+0x16c0>
    4736:	71 13 00 00 00 00 00 00	r3 = *(u8 *)(r1 + 0x0)
    4737:	15 03 01 00 ff 00 00 00	if r3 == 0xff goto +0x1 <entrypoint+0xcb0>
    4738:	05 00 d1 00 00 00 00 00	goto +0xd1 <entrypoint+0x1338>
    4739:	7b 12 08 00 00 00 00 00	*(u64 *)(r2 + 0x8) = r1
    4740:	79 13 50 00 00 00 00 00	r3 = *(u64 *)(r1 + 0x50)
    4741:	0f 31 00 00 00 00 00 00	r1 += r3
    4742:	07 01 00 00 67 28 00 00	r1 += 0x2867
    4743:	57 01 00 00 f8 ff ff ff	r1 &= -0x8
    4744:	71 13 00 00 00 00 00 00	r3 = *(u8 *)(r1 + 0x0)
    4745:	55 03 d2 00 ff 00 00 00	if r3 != 0xff goto +0xd2 <entrypoint+0x1378>
    4746:	7b 12 10 00 00 00 00 00	*(u64 *)(r2 + 0x10) = r1
    4747:	05 00 d2 fe 00 00 00 00	goto -0x12e <entrypoint+0x388>
    4748:	71 13 00 00 00 00 00 00	r3 = *(u8 *)(r1 + 0x0)
    4749:	15 03 01 00 ff 00 00 00	if r3 == 0xff goto +0x1 <entrypoint+0xd10>
    4750:	05 00 f5 00 00 00 00 00	goto +0xf5 <entrypoint+0x14b8>
    4751:	7b 12 08 00 00 00 00 00	*(u64 *)(r2 + 0x8) = r1
    4752:	79 13 50 00 00 00 00 00	r3 = *(u64 *)(r1 + 0x50)
    4753:	0f 31 00 00 00 00 00 00	r1 += r3
    4754:	07 01 00 00 67 28 00 00	r1 += 0x2867
    4755:	57 01 00 00 f8 ff ff ff	r1 &= -0x8
    4756:	71 13 00 00 00 00 00 00	r3 = *(u8 *)(r1 + 0x0)
    4757:	55 03 f6 00 ff 00 00 00	if r3 != 0xff goto +0xf6 <entrypoint+0x14f8>
    4758:	7b 12 10 00 00 00 00 00	*(u64 *)(r2 + 0x10) = r1
    4759:	79 13 50 00 00 00 00 00	r3 = *(u64 *)(r1 + 0x50)
    4760:	0f 31 00 00 00 00 00 00	r1 += r3
    4761:	07 01 00 00 67 28 00 00	r1 += 0x2867
    4762:	57 01 00 00 f8 ff ff ff	r1 &= -0x8
    4763:	71 13 00 00 00 00 00 00	r3 = *(u8 *)(r1 + 0x0)
    4764:	55 03 f7 00 ff 00 00 00	if r3 != 0xff goto +0xf7 <entrypoint+0x1538>
    4765:	7b 12 18 00 00 00 00 00	*(u64 *)(r2 + 0x18) = r1
    4766:	05 00 bf fe 00 00 00 00	goto -0x141 <entrypoint+0x388>
    4767:	bf 67 00 00 00 00 00 00	r7 = r6
    4768:	07 07 00 00 12 00 00 00	r7 += 0x12
    4769:	bf 85 00 00 00 00 00 00	r5 = r8
    4770:	07 05 00 00 f6 ff ff ff	r5 += -0xa
    4771:	15 05 7c 00 00 00 00 00	if r5 == 0x0 goto +0x7c <entrypoint+0x1198>
    4772:	79 a2 d8 f5 00 00 00 00	r2 = *(u64 *)(r10 - 0xa28)
    4773:	71 22 00 00 00 00 00 00	r2 = *(u8 *)(r2 + 0x0)
    4774:	7b 2a d0 f5 00 00 00 00	*(u64 *)(r10 - 0xa30) = r2
    4775:	79 63 0a 00 00 00 00 00	r3 = *(u64 *)(r6 + 0xa)
    4776:	b7 02 00 00 00 00 00 00	r2 = 0x0
    4777:	bf 87 00 00 00 00 00 00	r7 = r8
    4778:	07 07 00 00 f5 ff ff ff	r7 += -0xb
    4779:	bf 60 00 00 00 00 00 00	r0 = r6
    4780:	07 00 00 00 13 00 00 00	r0 += 0x13
    4781:	7b 0a d8 f5 00 00 00 00	*(u64 *)(r10 - 0xa28) = r0
    4782:	71 60 12 00 00 00 00 00	r0 = *(u8 *)(r6 + 0x12)
    4783:	73 0a a0 fe 00 00 00 00	*(u8 *)(r10 - 0x160) = r0
    4784:	b7 04 00 00 00 00 00 00	r4 = 0x0
    4785:	15 00 08 00 00 00 00 00	if r0 == 0x0 goto +0x8 <entrypoint+0xe68>
    4786:	55 00 4b 00 01 00 00 00	if r0 != 0x1 goto +0x4b <entrypoint+0x1088>
    4787:	a5 05 6a 00 05 00 00 00	if r5 < 0x5 goto +0x6a <entrypoint+0x1188>
    4788:	b7 04 00 00 01 00 00 00	r4 = 0x1
    4789:	61 62 13 00 00 00 00 00	r2 = *(u32 *)(r6 + 0x13)
    4790:	07 08 00 00 f1 ff ff ff	r8 += -0xf
    4791:	07 06 00 00 17 00 00 00	r6 += 0x17
    4792:	7b 6a d8 f5 00 00 00 00	*(u64 *)(r10 - 0xa28) = r6
    4793:	bf 87 00 00 00 00 00 00	r7 = r8
    4794:	7b 2a c8 f5 00 00 00 00	*(u64 *)(r10 - 0xa38) = r2
    4795:	15 07 50 ff 00 00 00 00	if r7 == 0x0 goto -0xb0 <entrypoint+0x8f8>
    4796:	bf 76 00 00 00 00 00 00	r6 = r7
    4797:	bf 79 00 00 00 00 00 00	r9 = r7
    4798:	07 09 00 00 ff ff ff ff	r9 += -0x1
    4799:	79 a5 d8 f5 00 00 00 00	r5 = *(u64 *)(r10 - 0xa28)
    4800:	bf 58 00 00 00 00 00 00	r8 = r5
    4801:	07 08 00 00 01 00 00 00	r8 += 0x1
    4802:	71 52 00 00 00 00 00 00	r2 = *(u8 *)(r5 + 0x0)
    4803:	73 2a a0 fe 00 00 00 00	*(u8 *)(r10 - 0x160) = r2
    4804:	15 02 08 00 00 00 00 00	if r2 == 0x0 goto +0x8 <entrypoint+0xf00>
    4805:	55 02 5f 00 01 00 00 00	if r2 != 0x1 goto +0x5f <entrypoint+0x11c0>
    4806:	a5 06 78 00 09 00 00 00	if r6 < 0x9 goto +0x78 <entrypoint+0x1290>
    4807:	b7 02 00 00 01 00 00 00	r2 = 0x1
    4808:	79 a8 d8 f5 00 00 00 00	r8 = *(u64 *)(r10 - 0xa28)
    4809:	bf 69 00 00 00 00 00 00	r9 = r6
    4810:	79 87 01 00 00 00 00 00	r7 = *(u64 *)(r8 + 0x1)
    4811:	07 09 00 00 f7 ff ff ff	r9 += -0x9
    4812:	07 08 00 00 09 00 00 00	r8 += 0x9
    4813:	15 09 78 00 00 00 00 00	if r9 == 0x0 goto +0x78 <entrypoint+0x12c8>
    4814:	15 09 74 00 01 00 00 00	if r9 == 0x1 goto +0x74 <entrypoint+0x12b0>
    4815:	15 09 75 00 02 00 00 00	if r9 == 0x2 goto +0x75 <entrypoint+0x12c0>
    4816:	7b 2a c0 f5 00 00 00 00	*(u64 *)(r10 - 0xa40) = r2
    4817:	71 85 00 00 00 00 00 00	r5 = *(u8 *)(r8 + 0x0)
    4818:	71 82 02 00 00 00 00 00	r2 = *(u8 *)(r8 + 0x2)
    4819:	7b 2a b8 f5 00 00 00 00	*(u64 *)(r10 - 0xa48) = r2
    4820:	07 09 00 00 fd ff ff ff	r9 += -0x3
